	.text
	.file	"task.c"
                                        // Start of file scope inline assembly
	.section	.data.reset_barrier,"aw",@progbits
	.type	reset_barrier,@object
	.globl	reset_barrier
	.p2align	2
reset_barrier:
	.byte	255
	.byte	11
	.byte	11
	.byte	__atomic_bit_barrier_reset_barrier
	.size	reset_barrier, 4
	.text
	.section	.data.initialization_barrier,"aw",@progbits
	.type	initialization_barrier,@object
	.globl	initialization_barrier
	.p2align	2
initialization_barrier:
	.byte	255
	.byte	11
	.byte	11
	.byte	__atomic_bit_barrier_initialization_barrier
	.size	initialization_barrier, 4
	.text

                                        // End of file scope inline assembly
	.file	1 "/mnt/host_cwd/BIM" "dpu/task.c"
	.file	2 "/upmem-sdk-2023.4.0/bin/../share/upmem/include/stdlib" "stdint.h"
	.file	3 "/mnt/host_cwd/BIM" "dpu/../cbthowen/types.h"
	.file	4 "/mnt/host_cwd/BIM" "dpu/../support/common.h"
	.file	5 "/mnt/host_cwd/BIM" "dpu/tinytensor.h"
	.section	.text.counter_start,"ax",@progbits
	.globl	counter_start                   // -- Begin function counter_start
	.type	counter_start,@function
counter_start:                          // @counter_start
.Lfunc_begin0:
	.file	6 "/mnt/host_cwd/BIM" "dpu/../support/cyclecount.h"
	.loc	6 11 0                          // dpu/../support/cyclecount.h:11:0
	.cfi_sections .debug_frame
	.cfi_startproc
// %bb.0:
	//DEBUG_VALUE: counter_start:count <- $r0
	.cfi_def_cfa_offset -16
	.cfi_offset 23, -8
	.cfi_offset 22, -4
	sd r22, 8, d22
	add r22, r22, 16
	.cfi_offset 15, -16
	.cfi_offset 14, -12
	sd r22, -16, d14
	move r14, r0
.Ltmp0:
	//DEBUG_VALUE: counter_start:count <- $r14
	.loc	6 12 20 prologue_end            // dpu/../support/cyclecount.h:12:20
	call r23, perfcounter_get
.Ltmp1:
	.loc	6 12 18 is_stmt 0               // dpu/../support/cyclecount.h:12:18
	sd r14, 0, d0
	.loc	6 13 1 is_stmt 1                // dpu/../support/cyclecount.h:13:1
	ld d14, r22, -16
.Ltmp2:
	ld d22, r22, -8
	jump r23
.Ltmp3:
.Lfunc_end0:
	.size	counter_start, .Lfunc_end0-counter_start
	.cfi_endproc
	.section	.stack_sizes,"o",@progbits,.text.counter_start
	.long	.Lfunc_begin0
	.byte	16
	.section	.text.counter_start,"ax",@progbits
                                        // -- End function
	.section	.text.counter_stop,"ax",@progbits
	.globl	counter_stop                    // -- Begin function counter_stop
	.type	counter_stop,@function
counter_stop:                           // @counter_stop
.Lfunc_begin1:
	.loc	6 15 0                          // dpu/../support/cyclecount.h:15:0
	.cfi_startproc
// %bb.0:
	//DEBUG_VALUE: counter_stop:count <- $r0
	.cfi_def_cfa_offset -16
	.cfi_offset 23, -8
	.cfi_offset 22, -4
	sd r22, 8, d22
	add r22, r22, 16
	.cfi_offset 15, -16
	.cfi_offset 14, -12
	sd r22, -16, d14
	move r14, r0
.Ltmp4:
	//DEBUG_VALUE: counter_stop:count <- $r14
	.loc	6 16 18 prologue_end            // dpu/../support/cyclecount.h:16:18
	call r23, perfcounter_get
.Ltmp5:
	.loc	6 16 16 is_stmt 0               // dpu/../support/cyclecount.h:16:16
	sd r14, 8, d0
	.loc	6 17 19 is_stmt 1               // dpu/../support/cyclecount.h:17:19
	call r23, perfcounter_get
.Ltmp6:
	.loc	6 17 17 is_stmt 0               // dpu/../support/cyclecount.h:17:17
	sd r14, 16, d0
	.loc	6 18 64 is_stmt 1               // dpu/../support/cyclecount.h:18:64
	ld d2, r14, 0
	.loc	6 18 44 is_stmt 0               // dpu/../support/cyclecount.h:18:44
	ld d4, r14, 8
	.loc	6 18 70                         // dpu/../support/cyclecount.h:18:70
	lsrx r6, r2, 4
	lsr_add r7, r6, r3, 4
	lsr r6, r2, 4
	.loc	6 18 93                         // dpu/../support/cyclecount.h:18:93
	lsrx r2, r0, 4
	lsr_add r3, r2, r1, 4
	lsr r2, r0, 4
	lsrx r0, r4, 3
	lsr_add r1, r0, r5, 3
	lsr r0, r4, 3
	and r1, r1, 4294967294
	and r0, r0, 0
	.loc	6 18 99                         // dpu/../support/cyclecount.h:18:99
	add r3, r7, r3
	addc r2, r6, r2
	.loc	6 18 77                         // dpu/../support/cyclecount.h:18:77
	sub r1, r1, r3
	subc r0, r0, r2
	.loc	6 18 123                        // dpu/../support/cyclecount.h:18:123
	lslx r2, r1, 4
	lsl_add r2, r2, r0, 4
	lsl r3, r1, 4
	and r1, r3, 4294967280
	and r0, r2, 15
	.loc	6 18 5                          // dpu/../support/cyclecount.h:18:5
	ld d14, r22, -16
.Ltmp7:
	ld d22, r22, -8
	jump r23
.Ltmp8:
.Lfunc_end1:
	.size	counter_stop, .Lfunc_end1-counter_stop
	.cfi_endproc
	.section	.stack_sizes,"o",@progbits,.text.counter_stop
	.long	.Lfunc_begin1
	.byte	16
	.section	.text.counter_stop,"ax",@progbits
                                        // -- End function
	.section	.text.fused_kernel,"ax",@progbits
	.globl	fused_kernel                    // -- Begin function fused_kernel
	.type	fused_kernel,@function
fused_kernel:                           // @fused_kernel
.Lfunc_begin2:
	.loc	1 108 0 is_stmt 1               // dpu/task.c:108:0
	.cfi_startproc
// %bb.0:
	.cfi_def_cfa_offset -80
	.cfi_offset 23, -8
	.cfi_offset 22, -4
	sd r22, 72, d22
	add r22, r22, 80
	.cfi_offset 15, -56
	.cfi_offset 14, -52
.Ltmp9:
	sd r22, -56, d14
	.cfi_offset 17, -64
	.cfi_offset 16, -60
	sd r22, -64, d16
	.cfi_offset 19, -72
	.cfi_offset 18, -68
	sd r22, -72, d18
	.cfi_offset 21, -80
	.cfi_offset 20, -76
	sd r22, -80, d20
.Ltmp10:
	//DEBUG_VALUE: fused_kernel:tasklet_id <- $r17
	.file	7 "/upmem-sdk-2023.4.0/bin/../share/upmem/include/syslib" "defs.h"
	.loc	7 35 12 prologue_end            // /upmem-sdk-2023.4.0/bin/../share/upmem/include/syslib/defs.h:35:12
	move r17, id, nz, .LBB2_2
.Ltmp11:
// %bb.1:
	.loc	1 111 9                         // dpu/task.c:111:9
	call r23, mem_reset
.Ltmp12:
.LBB2_2:
	.loc	1 120 5                         // dpu/task.c:120:5
	move r0, reset_barrier
	call r23, barrier_wait
.Ltmp13:
	.loc	1 131 48                        // dpu/task.c:131:48
	move r0, DPU_INPUT_ARGUMENTS
	lw r15, r0, 24
.Ltmp14:
	//DEBUG_VALUE: fused_kernel:p <- [DW_OP_LLVM_fragment 0 32] $r15
	lw r14, r0, 28
.Ltmp15:
	//DEBUG_VALUE: fused_kernel:p <- [DW_OP_LLVM_fragment 32 32] $r14
	lw r5, r0, 32
.Ltmp16:
	//DEBUG_VALUE: fused_kernel:p <- [DW_OP_LLVM_fragment 64 32] $r5
	lw r1, r0, 36
.Ltmp17:
	//DEBUG_VALUE: fused_kernel:p <- [DW_OP_LLVM_fragment 96 32] $r1
	sw r22, -40, r1
.Ltmp18:
	//DEBUG_VALUE: fused_kernel:p <- [DW_OP_constu 40, DW_OP_minus, DW_OP_LLVM_fragment 96 32] [$r22+0]
	lw r18, r0, 40
.Ltmp19:
	//DEBUG_VALUE: fused_kernel:p <- [DW_OP_LLVM_fragment 160 32] undef
	//DEBUG_VALUE: fused_kernel:p <- [DW_OP_LLVM_fragment 128 32] $r18
	lw r19, r0, 48
.Ltmp20:
	//DEBUG_VALUE: fused_kernel:p <- [DW_OP_LLVM_fragment 192 32] $r19
	.loc	1 133 51                        // dpu/task.c:133:51
	lw r1, zero, DPU_INPUT_ARGUMENTS
.Ltmp21:
	//DEBUG_VALUE: fused_kernel:size_bytes <- [DW_OP_LLVM_fragment 0 32] $r1
	lw r2, r0, 4
.Ltmp22:
	//DEBUG_VALUE: fused_kernel:size_bytes <- [DW_OP_LLVM_fragment 32 32] $r2
	lw r3, r0, 8
.Ltmp23:
	//DEBUG_VALUE: fused_kernel:size_bytes <- [DW_OP_LLVM_fragment 64 32] $r3
	lw r4, r0, 12
.Ltmp24:
	//DEBUG_VALUE: fused_kernel:size_bytes <- [DW_OP_LLVM_fragment 96 32] $r4
	sw r22, -28, r4
.Ltmp25:
	//DEBUG_VALUE: fused_kernel:size_bytes <- [DW_OP_constu 28, DW_OP_minus, DW_OP_LLVM_fragment 96 32] [$r22+0]
	lw r4, r0, 16
.Ltmp26:
	//DEBUG_VALUE: fused_kernel:size_bytes <- [DW_OP_LLVM_fragment 160 32] undef
	//DEBUG_VALUE: fused_kernel:size_bytes <- [DW_OP_LLVM_fragment 128 32] $r4
	sw r22, -24, r4
.Ltmp27:
	//DEBUG_VALUE: fused_kernel:size_bytes <- [DW_OP_constu 24, DW_OP_minus, DW_OP_LLVM_fragment 128 32] [$r22+0]
	.loc	1 135 42                        // dpu/task.c:135:42
	lw r6, r0, 52
.Ltmp28:
	//DEBUG_VALUE: fused_kernel:num_inputs <- $r6
	.loc	1 139 51                        // dpu/task.c:139:51
	move r4, __sys_used_mram_end
.Ltmp29:
	//DEBUG_VALUE: fused_kernel:addresses <- [DW_OP_LLVM_fragment 0 32] $r4
	add r1, r1, r4
.Ltmp30:
	//DEBUG_VALUE: fused_kernel:addresses <- [DW_OP_LLVM_fragment 64 32] $r1
	.loc	1 140 51                        // dpu/task.c:140:51
	add r3, r1, r3
.Ltmp31:
	//DEBUG_VALUE: fused_kernel:addresses <- [DW_OP_LLVM_fragment 32 32] $r3
	.loc	1 141 52                        // dpu/task.c:141:52
	add r1, r3, r2
.Ltmp32:
	//DEBUG_VALUE: fused_kernel:addresses <- [DW_OP_LLVM_fragment 160 32] undef
	//DEBUG_VALUE: fused_kernel:addresses <- [DW_OP_LLVM_fragment 128 32] undef
	//DEBUG_VALUE: fused_kernel:addresses <- [DW_OP_LLVM_fragment 96 32] $r1
	sw r22, -32, r1
.Ltmp33:
	//DEBUG_VALUE: fused_kernel:addresses <- [DW_OP_constu 32, DW_OP_minus, DW_OP_LLVM_fragment 96 32] [$r22+0]
	sw r22, -48, r5
.Ltmp34:
	//DEBUG_VALUE: fused_kernel:p <- [DW_OP_constu 48, DW_OP_minus, DW_OP_LLVM_fragment 64 32] [$r22+0]
	sw r22, -44, r6
	.loc	1 176 9                         // dpu/task.c:176:9
	jneq r17, 0, .LBB2_13
.Ltmp35:
// %bb.3:
	//DEBUG_VALUE: fused_kernel:p <- [DW_OP_constu 48, DW_OP_minus, DW_OP_LLVM_fragment 64 32] [$r22+0]
	//DEBUG_VALUE: fused_kernel:addresses <- [DW_OP_constu 32, DW_OP_minus, DW_OP_LLVM_fragment 96 32] [$r22+0]
	//DEBUG_VALUE: fused_kernel:size_bytes <- [DW_OP_constu 24, DW_OP_minus, DW_OP_LLVM_fragment 128 32] [$r22+0]
	//DEBUG_VALUE: fused_kernel:size_bytes <- [DW_OP_constu 28, DW_OP_minus, DW_OP_LLVM_fragment 96 32] [$r22+0]
	//DEBUG_VALUE: fused_kernel:p <- [DW_OP_constu 40, DW_OP_minus, DW_OP_LLVM_fragment 96 32] [$r22+0]
	//DEBUG_VALUE: fused_kernel:p <- [DW_OP_LLVM_fragment 192 32] $r19
	//DEBUG_VALUE: fused_kernel:p <- [DW_OP_LLVM_fragment 128 32] $r18
	//DEBUG_VALUE: fused_kernel:p <- [DW_OP_LLVM_fragment 0 32] $r15
	//DEBUG_VALUE: fused_kernel:p <- [DW_OP_LLVM_fragment 32 32] $r14
	//DEBUG_VALUE: fused_kernel:num_inputs <- $r6
	//DEBUG_VALUE: fused_kernel:addresses <- [DW_OP_LLVM_fragment 0 32] $r4
	//DEBUG_VALUE: fused_kernel:addresses <- [DW_OP_LLVM_fragment 32 32] $r3
	//DEBUG_VALUE: fused_kernel:size_bytes <- [DW_OP_LLVM_fragment 32 32] $r2
	sw r22, -12, r3
	sw r22, -20, r17
	.loc	1 0 0 is_stmt 0                 // dpu/task.c:0:0
	lw r0, r0, 44
.Ltmp36:
	//DEBUG_VALUE: fused_kernel:p <- [DW_OP_LLVM_fragment 160 32] $r0
	sw r22, -16, r0
.Ltmp37:
	//DEBUG_VALUE: wram_alloc_u8:len <- [DW_OP_constu 48, DW_OP_minus] [$r22+0]
	//DEBUG_VALUE: fused_kernel:p <- [DW_OP_constu 16, DW_OP_minus, DW_OP_LLVM_fragment 160 32] [$r22+0]
	.file	8 "/mnt/host_cwd/BIM" "dpu/tinylib.h"
	.loc	8 76 1 is_stmt 1                // dpu/tinylib.h:76:1
	move r0, r5
	call r23, mem_alloc
.Ltmp38:
	move r20, r0
.Ltmp39:
	//DEBUG_VALUE: thresholds_chunk <- $r20
	.loc	1 178 20                        // dpu/task.c:178:20
	sw zero, thresholds, r20
	.loc	1 181 45                        // dpu/task.c:181:45
	add r1, r14, 1
	move r0, 255
	.loc	1 181 33 is_stmt 0              // dpu/task.c:181:33
	call r23, __udiv32
.Ltmp40:
	.loc	1 0 33                          // dpu/task.c:0:33
	lw r1, r22, -48
	.loc	1 181 33                        // dpu/task.c:181:33
	move r21, r0
.Ltmp41:
	//DEBUG_VALUE: thresh_per_skew <- [DW_OP_LLVM_convert 32 7, DW_OP_LLVM_convert 8 7, DW_OP_stack_value] $r21
	//DEBUG_VALUE: i <- 0
	.loc	1 182 9 is_stmt 1               // dpu/task.c:182:9
	jeq r1, 0, .LBB2_9
.Ltmp42:
// %bb.4:
	//DEBUG_VALUE: fused_kernel:p <- [DW_OP_constu 16, DW_OP_minus, DW_OP_LLVM_fragment 160 32] [$r22+0]
	//DEBUG_VALUE: wram_alloc_u8:len <- [DW_OP_constu 48, DW_OP_minus] [$r22+0]
	//DEBUG_VALUE: fused_kernel:p <- [DW_OP_constu 48, DW_OP_minus, DW_OP_LLVM_fragment 64 32] [$r22+0]
	//DEBUG_VALUE: fused_kernel:addresses <- [DW_OP_constu 32, DW_OP_minus, DW_OP_LLVM_fragment 96 32] [$r22+0]
	//DEBUG_VALUE: fused_kernel:size_bytes <- [DW_OP_constu 24, DW_OP_minus, DW_OP_LLVM_fragment 128 32] [$r22+0]
	//DEBUG_VALUE: fused_kernel:size_bytes <- [DW_OP_constu 28, DW_OP_minus, DW_OP_LLVM_fragment 96 32] [$r22+0]
	//DEBUG_VALUE: fused_kernel:p <- [DW_OP_constu 40, DW_OP_minus, DW_OP_LLVM_fragment 96 32] [$r22+0]
	//DEBUG_VALUE: thresh_per_skew <- [DW_OP_LLVM_convert 32 7, DW_OP_LLVM_convert 8 7, DW_OP_stack_value] $r21
	//DEBUG_VALUE: thresholds_chunk <- $r20
	//DEBUG_VALUE: fused_kernel:p <- [DW_OP_LLVM_fragment 192 32] $r19
	//DEBUG_VALUE: fused_kernel:p <- [DW_OP_LLVM_fragment 128 32] $r18
	//DEBUG_VALUE: fused_kernel:p <- [DW_OP_LLVM_fragment 0 32] $r15
	//DEBUG_VALUE: fused_kernel:p <- [DW_OP_LLVM_fragment 32 32] $r14
	//DEBUG_VALUE: fused_kernel:num_inputs <- $r6
	//DEBUG_VALUE: fused_kernel:addresses <- [DW_OP_LLVM_fragment 0 32] $r4
	//DEBUG_VALUE: fused_kernel:addresses <- [DW_OP_LLVM_fragment 32 32] $r3
	//DEBUG_VALUE: fused_kernel:size_bytes <- [DW_OP_LLVM_fragment 32 32] $r2
	//DEBUG_VALUE: i <- 0
	.loc	1 0 9 is_stmt 0                 // dpu/task.c:0:9
	move r0, 0, true, .LBB2_5
.Ltmp43:
.LBB2_8:                                //   in Loop: Header=BB2_5 Depth=1
	//DEBUG_VALUE: i <- [DW_OP_constu 36, DW_OP_minus] [$r22+0]
	//DEBUG_VALUE: fused_kernel:p <- [DW_OP_constu 16, DW_OP_minus, DW_OP_LLVM_fragment 160 32] [$r22+0]
	//DEBUG_VALUE: fused_kernel:p <- [DW_OP_constu 48, DW_OP_minus, DW_OP_LLVM_fragment 64 32] [$r22+0]
	//DEBUG_VALUE: fused_kernel:addresses <- [DW_OP_constu 32, DW_OP_minus, DW_OP_LLVM_fragment 96 32] [$r22+0]
	//DEBUG_VALUE: fused_kernel:size_bytes <- [DW_OP_constu 24, DW_OP_minus, DW_OP_LLVM_fragment 128 32] [$r22+0]
	//DEBUG_VALUE: fused_kernel:size_bytes <- [DW_OP_constu 28, DW_OP_minus, DW_OP_LLVM_fragment 96 32] [$r22+0]
	//DEBUG_VALUE: fused_kernel:p <- [DW_OP_constu 40, DW_OP_minus, DW_OP_LLVM_fragment 96 32] [$r22+0]
	//DEBUG_VALUE: thresh_per_skew <- [DW_OP_LLVM_convert 32 7, DW_OP_LLVM_convert 8 7, DW_OP_stack_value] $r21
	//DEBUG_VALUE: thresholds_chunk <- $r20
	//DEBUG_VALUE: fused_kernel:p <- [DW_OP_LLVM_fragment 192 32] $r19
	//DEBUG_VALUE: fused_kernel:p <- [DW_OP_LLVM_fragment 128 32] $r18
	//DEBUG_VALUE: fused_kernel:p <- [DW_OP_LLVM_fragment 0 32] $r15
	//DEBUG_VALUE: fused_kernel:p <- [DW_OP_LLVM_fragment 32 32] $r14
	//DEBUG_VALUE: fused_kernel:num_inputs <- $r6
	//DEBUG_VALUE: fused_kernel:addresses <- [DW_OP_LLVM_fragment 0 32] $r4
	//DEBUG_VALUE: fused_kernel:addresses <- [DW_OP_LLVM_fragment 32 32] $r3
	//DEBUG_VALUE: fused_kernel:size_bytes <- [DW_OP_LLVM_fragment 32 32] $r2
	lw r0, r22, -36
.Ltmp44:
	.loc	1 182 42                        // dpu/task.c:182:42
	add r0, r0, 1
.Ltmp45:
	//DEBUG_VALUE: i <- $r0
	.loc	1 186 30 is_stmt 1              // dpu/task.c:186:30
	add r20, r20, r14
.Ltmp46:
	//DEBUG_VALUE: thresholds_chunk <- $r20
	.loc	1 0 30 is_stmt 0                // dpu/task.c:0:30
	lw r1, r22, -48
.Ltmp47:
	.loc	1 182 9 is_stmt 1               // dpu/task.c:182:9
	jeq r0, r1, .LBB2_9
.Ltmp48:
.LBB2_5:                                // =>This Loop Header: Depth=1
                                        //     Child Loop BB2_7 Depth 2
	//DEBUG_VALUE: fused_kernel:p <- [DW_OP_constu 16, DW_OP_minus, DW_OP_LLVM_fragment 160 32] [$r22+0]
	//DEBUG_VALUE: fused_kernel:p <- [DW_OP_constu 48, DW_OP_minus, DW_OP_LLVM_fragment 64 32] [$r22+0]
	//DEBUG_VALUE: fused_kernel:addresses <- [DW_OP_constu 32, DW_OP_minus, DW_OP_LLVM_fragment 96 32] [$r22+0]
	//DEBUG_VALUE: fused_kernel:size_bytes <- [DW_OP_constu 24, DW_OP_minus, DW_OP_LLVM_fragment 128 32] [$r22+0]
	//DEBUG_VALUE: fused_kernel:size_bytes <- [DW_OP_constu 28, DW_OP_minus, DW_OP_LLVM_fragment 96 32] [$r22+0]
	//DEBUG_VALUE: fused_kernel:p <- [DW_OP_constu 40, DW_OP_minus, DW_OP_LLVM_fragment 96 32] [$r22+0]
	//DEBUG_VALUE: thresh_per_skew <- [DW_OP_LLVM_convert 32 7, DW_OP_LLVM_convert 8 7, DW_OP_stack_value] $r21
	//DEBUG_VALUE: thresholds_chunk <- $r20
	//DEBUG_VALUE: fused_kernel:p <- [DW_OP_LLVM_fragment 192 32] $r19
	//DEBUG_VALUE: fused_kernel:p <- [DW_OP_LLVM_fragment 128 32] $r18
	//DEBUG_VALUE: fused_kernel:p <- [DW_OP_LLVM_fragment 0 32] $r15
	//DEBUG_VALUE: fused_kernel:p <- [DW_OP_LLVM_fragment 32 32] $r14
	//DEBUG_VALUE: fused_kernel:num_inputs <- $r6
	//DEBUG_VALUE: fused_kernel:addresses <- [DW_OP_LLVM_fragment 0 32] $r4
	//DEBUG_VALUE: fused_kernel:addresses <- [DW_OP_LLVM_fragment 32 32] $r3
	//DEBUG_VALUE: fused_kernel:size_bytes <- [DW_OP_LLVM_fragment 32 32] $r2
	//DEBUG_VALUE: thresholds_chunk <- $r20
	//DEBUG_VALUE: i <- $r0
	//DEBUG_VALUE: j <- 0
	sw r22, -36, r0
.Ltmp49:
	//DEBUG_VALUE: i <- [DW_OP_constu 36, DW_OP_minus] [$r22+0]
	.loc	1 183 13                        // dpu/task.c:183:13
	jeq r14, 0, .LBB2_8
.Ltmp50:
// %bb.6:                               //   in Loop: Header=BB2_5 Depth=1
	//DEBUG_VALUE: i <- [DW_OP_constu 36, DW_OP_minus] [$r22+0]
	//DEBUG_VALUE: fused_kernel:p <- [DW_OP_constu 16, DW_OP_minus, DW_OP_LLVM_fragment 160 32] [$r22+0]
	//DEBUG_VALUE: fused_kernel:p <- [DW_OP_constu 48, DW_OP_minus, DW_OP_LLVM_fragment 64 32] [$r22+0]
	//DEBUG_VALUE: fused_kernel:addresses <- [DW_OP_constu 32, DW_OP_minus, DW_OP_LLVM_fragment 96 32] [$r22+0]
	//DEBUG_VALUE: fused_kernel:size_bytes <- [DW_OP_constu 24, DW_OP_minus, DW_OP_LLVM_fragment 128 32] [$r22+0]
	//DEBUG_VALUE: fused_kernel:size_bytes <- [DW_OP_constu 28, DW_OP_minus, DW_OP_LLVM_fragment 96 32] [$r22+0]
	//DEBUG_VALUE: fused_kernel:p <- [DW_OP_constu 40, DW_OP_minus, DW_OP_LLVM_fragment 96 32] [$r22+0]
	//DEBUG_VALUE: thresh_per_skew <- [DW_OP_LLVM_convert 32 7, DW_OP_LLVM_convert 8 7, DW_OP_stack_value] $r21
	//DEBUG_VALUE: thresholds_chunk <- $r20
	//DEBUG_VALUE: fused_kernel:p <- [DW_OP_LLVM_fragment 192 32] $r19
	//DEBUG_VALUE: fused_kernel:p <- [DW_OP_LLVM_fragment 128 32] $r18
	//DEBUG_VALUE: fused_kernel:p <- [DW_OP_LLVM_fragment 0 32] $r15
	//DEBUG_VALUE: fused_kernel:p <- [DW_OP_LLVM_fragment 32 32] $r14
	//DEBUG_VALUE: fused_kernel:num_inputs <- $r6
	//DEBUG_VALUE: fused_kernel:addresses <- [DW_OP_LLVM_fragment 0 32] $r4
	//DEBUG_VALUE: fused_kernel:addresses <- [DW_OP_LLVM_fragment 32 32] $r3
	//DEBUG_VALUE: fused_kernel:size_bytes <- [DW_OP_LLVM_fragment 32 32] $r2
	//DEBUG_VALUE: j <- 0
	.loc	1 0 13 is_stmt 0                // dpu/task.c:0:13
	move r16, 0
.Ltmp51:
.LBB2_7:                                //   Parent Loop BB2_5 Depth=1
                                        // =>  This Inner Loop Header: Depth=2
	//DEBUG_VALUE: i <- [DW_OP_constu 36, DW_OP_minus] [$r22+0]
	//DEBUG_VALUE: fused_kernel:p <- [DW_OP_constu 16, DW_OP_minus, DW_OP_LLVM_fragment 160 32] [$r22+0]
	//DEBUG_VALUE: fused_kernel:p <- [DW_OP_constu 48, DW_OP_minus, DW_OP_LLVM_fragment 64 32] [$r22+0]
	//DEBUG_VALUE: fused_kernel:addresses <- [DW_OP_constu 32, DW_OP_minus, DW_OP_LLVM_fragment 96 32] [$r22+0]
	//DEBUG_VALUE: fused_kernel:size_bytes <- [DW_OP_constu 24, DW_OP_minus, DW_OP_LLVM_fragment 128 32] [$r22+0]
	//DEBUG_VALUE: fused_kernel:size_bytes <- [DW_OP_constu 28, DW_OP_minus, DW_OP_LLVM_fragment 96 32] [$r22+0]
	//DEBUG_VALUE: fused_kernel:p <- [DW_OP_constu 40, DW_OP_minus, DW_OP_LLVM_fragment 96 32] [$r22+0]
	//DEBUG_VALUE: thresh_per_skew <- [DW_OP_LLVM_convert 32 7, DW_OP_LLVM_convert 8 7, DW_OP_stack_value] $r21
	//DEBUG_VALUE: thresholds_chunk <- $r20
	//DEBUG_VALUE: fused_kernel:p <- [DW_OP_LLVM_fragment 192 32] $r19
	//DEBUG_VALUE: fused_kernel:p <- [DW_OP_LLVM_fragment 128 32] $r18
	//DEBUG_VALUE: fused_kernel:p <- [DW_OP_LLVM_fragment 0 32] $r15
	//DEBUG_VALUE: fused_kernel:p <- [DW_OP_LLVM_fragment 32 32] $r14
	//DEBUG_VALUE: fused_kernel:num_inputs <- $r6
	//DEBUG_VALUE: fused_kernel:addresses <- [DW_OP_LLVM_fragment 0 32] $r4
	//DEBUG_VALUE: fused_kernel:addresses <- [DW_OP_LLVM_fragment 32 32] $r3
	//DEBUG_VALUE: fused_kernel:size_bytes <- [DW_OP_LLVM_fragment 32 32] $r2
	//DEBUG_VALUE: j <- $r16
	.loc	1 184 42 is_stmt 1              // dpu/task.c:184:42
	add r17, r16, 1
	.loc	1 184 47 is_stmt 0              // dpu/task.c:184:47
	move r0, r17
	move r1, r21
	call r23, __mulsi3
.Ltmp52:
	.loc	1 184 37                        // dpu/task.c:184:37
	add r1, r20, r16
	sb r1, 0, r0
.Ltmp53:
	//DEBUG_VALUE: j <- $r17
	.loc	1 0 37                          // dpu/task.c:0:37
	move r16, r17
.Ltmp54:
	//DEBUG_VALUE: j <- $r16
	jneq r14, r17, .LBB2_7
	jump .LBB2_8
.Ltmp55:
.LBB2_9:
	//DEBUG_VALUE: fused_kernel:p <- [DW_OP_constu 16, DW_OP_minus, DW_OP_LLVM_fragment 160 32] [$r22+0]
	//DEBUG_VALUE: fused_kernel:p <- [DW_OP_constu 48, DW_OP_minus, DW_OP_LLVM_fragment 64 32] [$r22+0]
	//DEBUG_VALUE: fused_kernel:addresses <- [DW_OP_constu 32, DW_OP_minus, DW_OP_LLVM_fragment 96 32] [$r22+0]
	//DEBUG_VALUE: fused_kernel:size_bytes <- [DW_OP_constu 24, DW_OP_minus, DW_OP_LLVM_fragment 128 32] [$r22+0]
	//DEBUG_VALUE: fused_kernel:size_bytes <- [DW_OP_constu 28, DW_OP_minus, DW_OP_LLVM_fragment 96 32] [$r22+0]
	//DEBUG_VALUE: fused_kernel:p <- [DW_OP_constu 40, DW_OP_minus, DW_OP_LLVM_fragment 96 32] [$r22+0]
	//DEBUG_VALUE: thresh_per_skew <- [DW_OP_LLVM_convert 32 7, DW_OP_LLVM_convert 8 7, DW_OP_stack_value] $r21
	//DEBUG_VALUE: thresholds_chunk <- $r20
	//DEBUG_VALUE: fused_kernel:p <- [DW_OP_LLVM_fragment 192 32] $r19
	//DEBUG_VALUE: fused_kernel:p <- [DW_OP_LLVM_fragment 128 32] $r18
	//DEBUG_VALUE: fused_kernel:p <- [DW_OP_LLVM_fragment 0 32] $r15
	//DEBUG_VALUE: fused_kernel:p <- [DW_OP_LLVM_fragment 32 32] $r14
	//DEBUG_VALUE: fused_kernel:num_inputs <- $r6
	//DEBUG_VALUE: fused_kernel:addresses <- [DW_OP_LLVM_fragment 0 32] $r4
	//DEBUG_VALUE: fused_kernel:addresses <- [DW_OP_LLVM_fragment 32 32] $r3
	//DEBUG_VALUE: fused_kernel:size_bytes <- [DW_OP_LLVM_fragment 32 32] $r2
	//DEBUG_VALUE: wram_alloc_u16:len <- [DW_OP_constu 48, DW_OP_minus] [$r22+0]
	.loc	8 78 1 is_stmt 1                // dpu/tinylib.h:78:1
	lsl r20, r1, 1
.Ltmp56:
	move r0, r20
	call r23, mem_alloc
.Ltmp57:
	.loc	8 0 1 is_stmt 0                 // dpu/tinylib.h:0:1
	lw r3, r22, -48
.Ltmp58:
	.loc	1 190 15 is_stmt 1              // dpu/task.c:190:15
	sw zero, order, r0
	move r21, -1
.Ltmp59:
	//DEBUG_VALUE: mram_read:nb_of_bytes <- $r20
	//DEBUG_VALUE: mram_read:from <- [DW_OP_constu 12, DW_OP_minus] [$r22+0]
	//DEBUG_VALUE: mram_read:to <- $r0
	//DEBUG_VALUE: mram_read_u16:len <- [DW_OP_constu 48, DW_OP_minus] [$r22+0]
	//DEBUG_VALUE: mram_read_u16:from <- [DW_OP_constu 12, DW_OP_minus] [$r22+0]
	//DEBUG_VALUE: mram_read_u16:to <- $r0
	.file	9 "/upmem-sdk-2023.4.0/bin/../share/upmem/include/syslib" "mram.h"
	.loc	9 39 24                         // /upmem-sdk-2023.4.0/bin/../share/upmem/include/syslib/mram.h:39:24
	lsr_add r1, r21, r20, 3
	lsl_add r0, r0, r1, 24
.Ltmp60:
	lw r1, r22, -12
.Ltmp61:
	//DEBUG_VALUE: mram_read:from <- $r1
	//DEBUG_VALUE: mram_read_u16:from <- $r1
	ldma r0, r1, 0
.Ltmp62:
	//DEBUG_VALUE: i <- 0
	.loc	1 194 9                         // dpu/task.c:194:9
	jeq r3, 0, .LBB2_12
.Ltmp63:
// %bb.10:
	//DEBUG_VALUE: mram_read_u16:len <- [DW_OP_constu 48, DW_OP_minus] [$r22+0]
	//DEBUG_VALUE: wram_alloc_u16:len <- [DW_OP_constu 48, DW_OP_minus] [$r22+0]
	//DEBUG_VALUE: fused_kernel:p <- [DW_OP_constu 16, DW_OP_minus, DW_OP_LLVM_fragment 160 32] [$r22+0]
	//DEBUG_VALUE: fused_kernel:p <- [DW_OP_constu 48, DW_OP_minus, DW_OP_LLVM_fragment 64 32] [$r22+0]
	//DEBUG_VALUE: fused_kernel:addresses <- [DW_OP_constu 32, DW_OP_minus, DW_OP_LLVM_fragment 96 32] [$r22+0]
	//DEBUG_VALUE: fused_kernel:size_bytes <- [DW_OP_constu 24, DW_OP_minus, DW_OP_LLVM_fragment 128 32] [$r22+0]
	//DEBUG_VALUE: fused_kernel:size_bytes <- [DW_OP_constu 28, DW_OP_minus, DW_OP_LLVM_fragment 96 32] [$r22+0]
	//DEBUG_VALUE: fused_kernel:p <- [DW_OP_constu 40, DW_OP_minus, DW_OP_LLVM_fragment 96 32] [$r22+0]
	//DEBUG_VALUE: mram_read:nb_of_bytes <- $r20
	//DEBUG_VALUE: fused_kernel:p <- [DW_OP_LLVM_fragment 192 32] $r19
	//DEBUG_VALUE: fused_kernel:p <- [DW_OP_LLVM_fragment 128 32] $r18
	//DEBUG_VALUE: fused_kernel:p <- [DW_OP_LLVM_fragment 0 32] $r15
	//DEBUG_VALUE: fused_kernel:p <- [DW_OP_LLVM_fragment 32 32] $r14
	//DEBUG_VALUE: fused_kernel:num_inputs <- $r6
	//DEBUG_VALUE: fused_kernel:addresses <- [DW_OP_LLVM_fragment 0 32] $r4
	//DEBUG_VALUE: fused_kernel:size_bytes <- [DW_OP_LLVM_fragment 32 32] $r2
	//DEBUG_VALUE: mram_read_u16:from <- $r1
	//DEBUG_VALUE: mram_read:from <- $r1
	//DEBUG_VALUE: i <- 0
	.loc	1 0 9 is_stmt 0                 // dpu/task.c:0:9
	lw r0, zero, order
	move r1, 0
.Ltmp64:
.LBB2_11:                               // =>This Inner Loop Header: Depth=1
	//DEBUG_VALUE: fused_kernel:p <- [DW_OP_constu 16, DW_OP_minus, DW_OP_LLVM_fragment 160 32] [$r22+0]
	//DEBUG_VALUE: fused_kernel:p <- [DW_OP_constu 48, DW_OP_minus, DW_OP_LLVM_fragment 64 32] [$r22+0]
	//DEBUG_VALUE: fused_kernel:addresses <- [DW_OP_constu 32, DW_OP_minus, DW_OP_LLVM_fragment 96 32] [$r22+0]
	//DEBUG_VALUE: fused_kernel:size_bytes <- [DW_OP_constu 24, DW_OP_minus, DW_OP_LLVM_fragment 128 32] [$r22+0]
	//DEBUG_VALUE: fused_kernel:size_bytes <- [DW_OP_constu 28, DW_OP_minus, DW_OP_LLVM_fragment 96 32] [$r22+0]
	//DEBUG_VALUE: fused_kernel:p <- [DW_OP_constu 40, DW_OP_minus, DW_OP_LLVM_fragment 96 32] [$r22+0]
	//DEBUG_VALUE: fused_kernel:p <- [DW_OP_LLVM_fragment 192 32] $r19
	//DEBUG_VALUE: fused_kernel:p <- [DW_OP_LLVM_fragment 128 32] $r18
	//DEBUG_VALUE: fused_kernel:p <- [DW_OP_LLVM_fragment 0 32] $r15
	//DEBUG_VALUE: fused_kernel:p <- [DW_OP_LLVM_fragment 32 32] $r14
	//DEBUG_VALUE: fused_kernel:num_inputs <- $r6
	//DEBUG_VALUE: fused_kernel:addresses <- [DW_OP_LLVM_fragment 0 32] $r4
	//DEBUG_VALUE: i <- $r1
	.loc	1 195 22 is_stmt 1              // dpu/task.c:195:22
	lsl_add r2, r0, r1, 1
	sh r2, 0, r1
.Ltmp65:
	.loc	1 194 42                        // dpu/task.c:194:42
	add r1, r1, 1
.Ltmp66:
	//DEBUG_VALUE: i <- $r1
	.loc	1 194 9 is_stmt 0               // dpu/task.c:194:9
	jneq r3, r1, .LBB2_11
.Ltmp67:
.LBB2_12:
	//DEBUG_VALUE: fused_kernel:p <- [DW_OP_constu 16, DW_OP_minus, DW_OP_LLVM_fragment 160 32] [$r22+0]
	//DEBUG_VALUE: fused_kernel:p <- [DW_OP_constu 48, DW_OP_minus, DW_OP_LLVM_fragment 64 32] [$r22+0]
	//DEBUG_VALUE: fused_kernel:addresses <- [DW_OP_constu 32, DW_OP_minus, DW_OP_LLVM_fragment 96 32] [$r22+0]
	//DEBUG_VALUE: fused_kernel:size_bytes <- [DW_OP_constu 24, DW_OP_minus, DW_OP_LLVM_fragment 128 32] [$r22+0]
	//DEBUG_VALUE: fused_kernel:size_bytes <- [DW_OP_constu 28, DW_OP_minus, DW_OP_LLVM_fragment 96 32] [$r22+0]
	//DEBUG_VALUE: fused_kernel:p <- [DW_OP_constu 40, DW_OP_minus, DW_OP_LLVM_fragment 96 32] [$r22+0]
	//DEBUG_VALUE: fused_kernel:p <- [DW_OP_LLVM_fragment 192 32] $r19
	//DEBUG_VALUE: fused_kernel:p <- [DW_OP_LLVM_fragment 128 32] $r18
	//DEBUG_VALUE: fused_kernel:p <- [DW_OP_LLVM_fragment 0 32] $r15
	//DEBUG_VALUE: fused_kernel:p <- [DW_OP_LLVM_fragment 32 32] $r14
	//DEBUG_VALUE: fused_kernel:num_inputs <- $r6
	//DEBUG_VALUE: fused_kernel:addresses <- [DW_OP_LLVM_fragment 0 32] $r4
	//DEBUG_VALUE: mat_u16_init:rows <- $r19
	//DEBUG_VALUE: mat_u16_init:cols <- $r18
	.loc	5 57 1 is_stmt 1                // dpu/tinytensor.h:57:1
	sw zero, hash_params, r18
	move r17, hash_params
.Ltmp68:
	//DEBUG_VALUE: mat_u16_init:mat <- $r17
	.loc	1 200 80                        // dpu/task.c:200:80
	move r0, r19
	move r1, r18
	call r23, __mulsi3
.Ltmp69:
	//DEBUG_VALUE: wram_alloc_u16:len <- undef
	//DEBUG_VALUE: mram_read_u16:len <- $r0
	.loc	8 48 1                          // dpu/tinylib.h:48:1
	lsl r16, r0, 1
.Ltmp70:
	//DEBUG_VALUE: mram_read_u16:to <- undef
	//DEBUG_VALUE: mat_u16_init:mat <- $r17
	//DEBUG_VALUE: mat_u16_init:cols <- $r18
	//DEBUG_VALUE: mat_u16_init:rows <- $r19
	.loc	8 78 1                          // dpu/tinylib.h:78:1
	move r0, r16
.Ltmp71:
	call r23, mem_alloc
.Ltmp72:
	.loc	5 57 1                          // dpu/tinytensor.h:57:1
	sw r17, 4, r0
.Ltmp73:
	//DEBUG_VALUE: mram_read:from <- [DW_OP_constu 32, DW_OP_minus] [$r22+0]
	//DEBUG_VALUE: mram_read:to <- $r0
	//DEBUG_VALUE: mram_read_u16:from <- [DW_OP_constu 32, DW_OP_minus] [$r22+0]
	//DEBUG_VALUE: mram_read:nb_of_bytes <- $r16
	.loc	9 39 24                         // /upmem-sdk-2023.4.0/bin/../share/upmem/include/syslib/mram.h:39:24
	lsr_add r1, r21, r16, 3
	lsl_add r0, r0, r1, 24
.Ltmp74:
	lw r1, r22, -32
.Ltmp75:
	//DEBUG_VALUE: mram_read:from <- $r1
	//DEBUG_VALUE: mram_read_u16:from <- $r1
	ldma r0, r1, 0
.Ltmp76:
	//DEBUG_VALUE: mram_read:from <- [DW_OP_constu 32, DW_OP_minus] [$r22+0]
	//DEBUG_VALUE: mram_read_u16:from <- [DW_OP_constu 32, DW_OP_minus] [$r22+0]
	.loc	1 203 64                        // dpu/task.c:203:64
	lw r0, r22, -16
	lsr r0, r0, 3
.Ltmp77:
	//DEBUG_VALUE: mat_u8_init:rows <- [DW_OP_constu 40, DW_OP_minus] [$r22+0]
	//DEBUG_VALUE: mat_u8_init:cols <- $r0
	.loc	5 58 1                          // dpu/tinytensor.h:58:1
	sw zero, filters, r0
	move r17, filters
.Ltmp78:
	//DEBUG_VALUE: mat_u8_init:mat <- $r17
	lw r1, r22, -40
	call r23, __mulsi3
.Ltmp79:
	move r16, r0
.Ltmp80:
	//DEBUG_VALUE: wram_alloc_u8:len <- $r16
	.loc	8 76 1                          // dpu/tinylib.h:76:1
	call r23, mem_alloc
.Ltmp81:
	.loc	8 0 1 is_stmt 0                 // dpu/tinylib.h:0:1
	lw r5, r22, -48
.Ltmp82:
	.loc	5 58 1 is_stmt 1                // dpu/tinytensor.h:58:1
	sw r17, 4, r0
.Ltmp83:
	//DEBUG_VALUE: mram_read:to <- $r0
	//DEBUG_VALUE: mram_read_u8:to <- $r0
	//DEBUG_VALUE: mram_read:nb_of_bytes <- $r16
	//DEBUG_VALUE: mram_read_u8:len <- $r16
	.loc	9 39 24                         // /upmem-sdk-2023.4.0/bin/../share/upmem/include/syslib/mram.h:39:24
	lsr_add r1, r21, r16, 3
	lsl_add r0, r0, r1, 24
.Ltmp84:
	move r1, __sys_used_mram_end
.Ltmp85:
	//DEBUG_VALUE: mram_read:from <- $r1
	ldma r0, r1, 0
.Ltmp86:
	//DEBUG_VALUE: mram_read_u8:from <- undef
	.loc	9 0 24 is_stmt 0                // /upmem-sdk-2023.4.0/bin/../share/upmem/include/syslib/mram.h:0:24
	lw r17, r22, -20
.Ltmp87:
	lw r6, r22, -44
.Ltmp88:
.LBB2_13:
	//DEBUG_VALUE: fused_kernel:p <- [DW_OP_constu 48, DW_OP_minus, DW_OP_LLVM_fragment 64 32] [$r22+0]
	//DEBUG_VALUE: fused_kernel:addresses <- [DW_OP_constu 32, DW_OP_minus, DW_OP_LLVM_fragment 96 32] [$r22+0]
	//DEBUG_VALUE: fused_kernel:size_bytes <- [DW_OP_constu 24, DW_OP_minus, DW_OP_LLVM_fragment 128 32] [$r22+0]
	//DEBUG_VALUE: fused_kernel:size_bytes <- [DW_OP_constu 28, DW_OP_minus, DW_OP_LLVM_fragment 96 32] [$r22+0]
	//DEBUG_VALUE: fused_kernel:p <- [DW_OP_constu 40, DW_OP_minus, DW_OP_LLVM_fragment 96 32] [$r22+0]
	//DEBUG_VALUE: fused_kernel:p <- [DW_OP_LLVM_fragment 192 32] $r19
	//DEBUG_VALUE: fused_kernel:p <- [DW_OP_LLVM_fragment 128 32] $r18
	//DEBUG_VALUE: fused_kernel:p <- [DW_OP_LLVM_fragment 0 32] $r15
	//DEBUG_VALUE: fused_kernel:p <- [DW_OP_LLVM_fragment 32 32] $r14
	//DEBUG_VALUE: fused_kernel:addresses <- [DW_OP_LLVM_fragment 0 32] $r4
	//DEBUG_VALUE: fused_kernel:addresses <- [DW_OP_LLVM_fragment 128 32] undef
	//DEBUG_VALUE: fused_kernel:addresses <- [DW_OP_LLVM_fragment 160 32] undef
	//DEBUG_VALUE: wram_alloc_u8:len <- [DW_OP_constu 48, DW_OP_minus] [$r22+0]
	.loc	8 76 1 is_stmt 1                // dpu/tinylib.h:76:1
	move r0, r5
	move r16, r5
	call r23, mem_alloc
.Ltmp89:
	move r20, r0
.Ltmp90:
	//DEBUG_VALUE: fused_kernel:hashes <- [DW_OP_LLVM_fragment 32 32] $r20
	//DEBUG_VALUE: fused_kernel:encoded <- $r20
	//DEBUG_VALUE: fused_kernel:pbuffer1 <- $r20
	//DEBUG_VALUE: wram_alloc_u8:len <- [DW_OP_constu 48, DW_OP_minus] [$r22+0]
	.loc	8 76 1 is_stmt 0                // dpu/tinylib.h:76:1
	move r0, r16
	call r23, mem_alloc
.Ltmp91:
	move r21, r0
.Ltmp92:
	//DEBUG_VALUE: fused_kernel:hashes <- [DW_OP_LLVM_fragment 0 32] $r19
	//DEBUG_VALUE: fused_kernel:filter_reductions <- $r21
	//DEBUG_VALUE: fused_kernel:reordered <- $r21
	//DEBUG_VALUE: fused_kernel:input <- $r21
	//DEBUG_VALUE: fused_kernel:pbuffer2 <- $r21
	.loc	1 236 5 is_stmt 1               // dpu/task.c:236:5
	move r0, initialization_barrier
	call r23, barrier_wait
.Ltmp93:
	.loc	1 0 5 is_stmt 0                 // dpu/task.c:0:5
	lw r0, r22, -44
.Ltmp94:
	//DEBUG_VALUE: sample_it <- $r17
	.loc	1 239 5 is_stmt 1               // dpu/task.c:239:5
	jgeu r17, r0, .LBB2_39
.Ltmp95:
// %bb.14:
	//DEBUG_VALUE: fused_kernel:p <- [DW_OP_constu 48, DW_OP_minus, DW_OP_LLVM_fragment 64 32] [$r22+0]
	//DEBUG_VALUE: fused_kernel:addresses <- [DW_OP_constu 32, DW_OP_minus, DW_OP_LLVM_fragment 96 32] [$r22+0]
	//DEBUG_VALUE: fused_kernel:size_bytes <- [DW_OP_constu 24, DW_OP_minus, DW_OP_LLVM_fragment 128 32] [$r22+0]
	//DEBUG_VALUE: fused_kernel:size_bytes <- [DW_OP_constu 28, DW_OP_minus, DW_OP_LLVM_fragment 96 32] [$r22+0]
	//DEBUG_VALUE: fused_kernel:p <- [DW_OP_constu 40, DW_OP_minus, DW_OP_LLVM_fragment 96 32] [$r22+0]
	//DEBUG_VALUE: fused_kernel:pbuffer2 <- $r21
	//DEBUG_VALUE: fused_kernel:input <- $r21
	//DEBUG_VALUE: fused_kernel:reordered <- $r21
	//DEBUG_VALUE: fused_kernel:filter_reductions <- $r21
	//DEBUG_VALUE: fused_kernel:pbuffer1 <- $r20
	//DEBUG_VALUE: fused_kernel:encoded <- $r20
	//DEBUG_VALUE: fused_kernel:hashes <- [DW_OP_LLVM_fragment 32 32] $r20
	//DEBUG_VALUE: fused_kernel:hashes <- [DW_OP_LLVM_fragment 0 32] $r19
	//DEBUG_VALUE: fused_kernel:p <- [DW_OP_LLVM_fragment 192 32] $r19
	//DEBUG_VALUE: fused_kernel:p <- [DW_OP_LLVM_fragment 128 32] $r18
	//DEBUG_VALUE: sample_it <- $r17
	//DEBUG_VALUE: fused_kernel:p <- [DW_OP_LLVM_fragment 0 32] $r15
	//DEBUG_VALUE: fused_kernel:p <- [DW_OP_LLVM_fragment 32 32] $r14
	//DEBUG_VALUE: fused_kernel:addresses <- [DW_OP_LLVM_fragment 0 32] $r4
	.loc	1 0 0 is_stmt 0                 // dpu/task.c:0:0
	lw r1, r22, -28
	lw r2, r22, -32
	add r1, r2, r1
.Ltmp96:
	//DEBUG_VALUE: fused_kernel:addresses <- [DW_OP_LLVM_fragment 128 32] $r1
	sw r22, -36, r1
.Ltmp97:
	//DEBUG_VALUE: fused_kernel:addresses <- [DW_OP_constu 36, DW_OP_minus, DW_OP_LLVM_fragment 128 32] [$r22+0]
	lw r2, r22, -24
	add r1, r1, r2
.Ltmp98:
	//DEBUG_VALUE: fused_kernel:addresses <- [DW_OP_LLVM_fragment 160 32] $r1
	sw r22, -32, r1
.Ltmp99:
	//DEBUG_VALUE: fused_kernel:addresses <- [DW_OP_constu 32, DW_OP_minus, DW_OP_LLVM_fragment 160 32] [$r22+0]
	.loc	1 239 5                         // dpu/task.c:239:5
	lsl r16, r19, 1, true, .LBB2_15
.Ltmp100:
.LBB2_38:                               //   in Loop: Header=BB2_15 Depth=1
	//DEBUG_VALUE: fused_kernel:addresses <- [DW_OP_constu 32, DW_OP_minus, DW_OP_LLVM_fragment 160 32] [$r22+0]
	//DEBUG_VALUE: fused_kernel:addresses <- [DW_OP_constu 36, DW_OP_minus, DW_OP_LLVM_fragment 128 32] [$r22+0]
	//DEBUG_VALUE: fused_kernel:p <- [DW_OP_constu 48, DW_OP_minus, DW_OP_LLVM_fragment 64 32] [$r22+0]
	//DEBUG_VALUE: fused_kernel:addresses <- [DW_OP_constu 32, DW_OP_minus, DW_OP_LLVM_fragment 96 32] [$r22+0]
	//DEBUG_VALUE: fused_kernel:size_bytes <- [DW_OP_constu 24, DW_OP_minus, DW_OP_LLVM_fragment 128 32] [$r22+0]
	//DEBUG_VALUE: fused_kernel:size_bytes <- [DW_OP_constu 28, DW_OP_minus, DW_OP_LLVM_fragment 96 32] [$r22+0]
	//DEBUG_VALUE: fused_kernel:p <- [DW_OP_constu 40, DW_OP_minus, DW_OP_LLVM_fragment 96 32] [$r22+0]
	//DEBUG_VALUE: fused_kernel:pbuffer2 <- $r21
	//DEBUG_VALUE: fused_kernel:input <- $r21
	//DEBUG_VALUE: fused_kernel:reordered <- $r21
	//DEBUG_VALUE: fused_kernel:filter_reductions <- $r21
	//DEBUG_VALUE: fused_kernel:pbuffer1 <- $r20
	//DEBUG_VALUE: fused_kernel:encoded <- $r20
	//DEBUG_VALUE: fused_kernel:hashes <- [DW_OP_LLVM_fragment 32 32] $r20
	//DEBUG_VALUE: fused_kernel:hashes <- [DW_OP_LLVM_fragment 0 32] $r19
	//DEBUG_VALUE: fused_kernel:p <- [DW_OP_LLVM_fragment 192 32] $r19
	//DEBUG_VALUE: fused_kernel:p <- [DW_OP_LLVM_fragment 128 32] $r18
	//DEBUG_VALUE: sample_it <- $r17
	//DEBUG_VALUE: fused_kernel:p <- [DW_OP_LLVM_fragment 0 32] $r15
	//DEBUG_VALUE: fused_kernel:p <- [DW_OP_LLVM_fragment 32 32] $r14
	.loc	1 317 31 is_stmt 1              // dpu/task.c:317:31
	lw r0, r22, -32
	add r0, r0, r17
	move r1, -1
.Ltmp101:
	//DEBUG_VALUE: mram_write:nb_of_bytes <- [DW_OP_constu 40, DW_OP_minus] [$r22+0]
	//DEBUG_VALUE: mram_write:to <- $r0
	//DEBUG_VALUE: mram_write:from <- $r21
	//DEBUG_VALUE: mram_write_u8:len <- [DW_OP_constu 40, DW_OP_minus] [$r22+0]
	//DEBUG_VALUE: mram_write_u8:from <- $r21
	//DEBUG_VALUE: mram_write_u8:to <- $r0
	.loc	9 61 24                         // /upmem-sdk-2023.4.0/bin/../share/upmem/include/syslib/mram.h:61:24
	lsr_add r1, r1, r11, 3
	lsl_add r1, r21, r1, 24
.Ltmp102:
	.loc	1 239 71                        // dpu/task.c:239:71
	add r17, r17, 11
.Ltmp103:
	//DEBUG_VALUE: sample_it <- $r17
	.loc	9 61 24                         // /upmem-sdk-2023.4.0/bin/../share/upmem/include/syslib/mram.h:61:24
	sdma r1, r0, 0
	//DEBUG_VALUE: mram_write:nb_of_bytes <- [DW_OP_constu 40, DW_OP_minus] [$r22+0]
	//DEBUG_VALUE: mram_write:to <- $r0
	//DEBUG_VALUE: mram_write:from <- $r21
	//DEBUG_VALUE: mram_write_u8:len <- [DW_OP_constu 40, DW_OP_minus] [$r22+0]
	//DEBUG_VALUE: mram_write_u8:from <- $r21
	//DEBUG_VALUE: mram_write_u8:to <- $r0
	lw r0, r22, -44
.Ltmp104:
	.loc	1 239 5                         // dpu/task.c:239:5
	jgeu r17, r0, .LBB2_39
.Ltmp105:
.LBB2_15:                               // =>This Loop Header: Depth=1
                                        //     Child Loop BB2_16 Depth 2
                                        //       Child Loop BB2_18 Depth 3
                                        //     Child Loop BB2_22 Depth 2
                                        //     Child Loop BB2_25 Depth 2
                                        //       Child Loop BB2_27 Depth 3
                                        //         Child Loop BB2_29 Depth 4
                                        //     Child Loop BB2_34 Depth 2
                                        //       Child Loop BB2_36 Depth 3
	//DEBUG_VALUE: fused_kernel:addresses <- [DW_OP_constu 32, DW_OP_minus, DW_OP_LLVM_fragment 160 32] [$r22+0]
	//DEBUG_VALUE: fused_kernel:addresses <- [DW_OP_constu 36, DW_OP_minus, DW_OP_LLVM_fragment 128 32] [$r22+0]
	//DEBUG_VALUE: fused_kernel:p <- [DW_OP_constu 48, DW_OP_minus, DW_OP_LLVM_fragment 64 32] [$r22+0]
	//DEBUG_VALUE: fused_kernel:addresses <- [DW_OP_constu 32, DW_OP_minus, DW_OP_LLVM_fragment 96 32] [$r22+0]
	//DEBUG_VALUE: fused_kernel:size_bytes <- [DW_OP_constu 24, DW_OP_minus, DW_OP_LLVM_fragment 128 32] [$r22+0]
	//DEBUG_VALUE: fused_kernel:size_bytes <- [DW_OP_constu 28, DW_OP_minus, DW_OP_LLVM_fragment 96 32] [$r22+0]
	//DEBUG_VALUE: fused_kernel:p <- [DW_OP_constu 40, DW_OP_minus, DW_OP_LLVM_fragment 96 32] [$r22+0]
	//DEBUG_VALUE: fused_kernel:pbuffer2 <- $r21
	//DEBUG_VALUE: fused_kernel:input <- $r21
	//DEBUG_VALUE: fused_kernel:reordered <- $r21
	//DEBUG_VALUE: fused_kernel:filter_reductions <- $r21
	//DEBUG_VALUE: fused_kernel:pbuffer1 <- $r20
	//DEBUG_VALUE: fused_kernel:encoded <- $r20
	//DEBUG_VALUE: fused_kernel:hashes <- [DW_OP_LLVM_fragment 32 32] $r20
	//DEBUG_VALUE: fused_kernel:hashes <- [DW_OP_LLVM_fragment 0 32] $r19
	//DEBUG_VALUE: fused_kernel:p <- [DW_OP_LLVM_fragment 192 32] $r19
	//DEBUG_VALUE: fused_kernel:p <- [DW_OP_LLVM_fragment 128 32] $r18
	//DEBUG_VALUE: sample_it <- $r17
	//DEBUG_VALUE: fused_kernel:p <- [DW_OP_LLVM_fragment 0 32] $r15
	//DEBUG_VALUE: fused_kernel:p <- [DW_OP_LLVM_fragment 32 32] $r14
	//DEBUG_VALUE: sample_it <- $r17
	.loc	1 244 55                        // dpu/task.c:244:55
	move r0, r17
	move r1, r15
	call r23, __mulsi3
.Ltmp106:
	.loc	1 244 43 is_stmt 0              // dpu/task.c:244:43
	lw r1, r22, -36
	add r0, r0, r1
.Ltmp107:
	//DEBUG_VALUE: input_addr <- $r0
	.loc	1 0 43                          // dpu/task.c:0:43
	move r1, -1
.Ltmp108:
	//DEBUG_VALUE: mram_read:nb_of_bytes <- $r15
	//DEBUG_VALUE: mram_read:to <- $r21
	//DEBUG_VALUE: mram_read:from <- $r0
	//DEBUG_VALUE: mram_read_u8:len <- $r15
	//DEBUG_VALUE: mram_read_u8:to <- $r21
	//DEBUG_VALUE: mram_read_u8:from <- $r0
	.loc	9 39 24 is_stmt 1               // /upmem-sdk-2023.4.0/bin/../share/upmem/include/syslib/mram.h:39:24
	lsr_add r1, r1, r15, 3
	lsl_add r1, r21, r1, 24
	ldma r1, r0, 0
.Ltmp109:
	.loc	1 250 13                        // dpu/task.c:250:13
	lw r0, zero, thresholds
.Ltmp110:
	//DEBUG_VALUE: it <- 0
	//DEBUG_VALUE: encode_buffer:len <- $r15
	//DEBUG_VALUE: encode_buffer:num_bits <- $r14
	//DEBUG_VALUE: encode_buffer:output <- $r20
	//DEBUG_VALUE: encode_buffer:input <- $r21
	//DEBUG_VALUE: encode_buffer:thresholds <- $r0
	//DEBUG_VALUE: encode_buffer:thresholds_chunk <- $r0
	.loc	1 0 13 is_stmt 0                // dpu/task.c:0:13
	move r1, 0, true, .LBB2_16
.Ltmp111:
.LBB2_19:                               //   in Loop: Header=BB2_16 Depth=2
	//DEBUG_VALUE: fused_kernel:addresses <- [DW_OP_constu 32, DW_OP_minus, DW_OP_LLVM_fragment 160 32] [$r22+0]
	//DEBUG_VALUE: fused_kernel:addresses <- [DW_OP_constu 36, DW_OP_minus, DW_OP_LLVM_fragment 128 32] [$r22+0]
	//DEBUG_VALUE: fused_kernel:p <- [DW_OP_constu 48, DW_OP_minus, DW_OP_LLVM_fragment 64 32] [$r22+0]
	//DEBUG_VALUE: fused_kernel:addresses <- [DW_OP_constu 32, DW_OP_minus, DW_OP_LLVM_fragment 96 32] [$r22+0]
	//DEBUG_VALUE: fused_kernel:size_bytes <- [DW_OP_constu 24, DW_OP_minus, DW_OP_LLVM_fragment 128 32] [$r22+0]
	//DEBUG_VALUE: fused_kernel:size_bytes <- [DW_OP_constu 28, DW_OP_minus, DW_OP_LLVM_fragment 96 32] [$r22+0]
	//DEBUG_VALUE: fused_kernel:p <- [DW_OP_constu 40, DW_OP_minus, DW_OP_LLVM_fragment 96 32] [$r22+0]
	//DEBUG_VALUE: encode_buffer:input <- $r21
	//DEBUG_VALUE: fused_kernel:pbuffer2 <- $r21
	//DEBUG_VALUE: fused_kernel:input <- $r21
	//DEBUG_VALUE: fused_kernel:reordered <- $r21
	//DEBUG_VALUE: fused_kernel:filter_reductions <- $r21
	//DEBUG_VALUE: encode_buffer:output <- $r20
	//DEBUG_VALUE: fused_kernel:pbuffer1 <- $r20
	//DEBUG_VALUE: fused_kernel:encoded <- $r20
	//DEBUG_VALUE: fused_kernel:hashes <- [DW_OP_LLVM_fragment 32 32] $r20
	//DEBUG_VALUE: fused_kernel:hashes <- [DW_OP_LLVM_fragment 0 32] $r19
	//DEBUG_VALUE: fused_kernel:p <- [DW_OP_LLVM_fragment 192 32] $r19
	//DEBUG_VALUE: fused_kernel:p <- [DW_OP_LLVM_fragment 128 32] $r18
	//DEBUG_VALUE: sample_it <- $r17
	//DEBUG_VALUE: encode_buffer:len <- $r15
	//DEBUG_VALUE: fused_kernel:p <- [DW_OP_LLVM_fragment 0 32] $r15
	//DEBUG_VALUE: encode_buffer:num_bits <- $r14
	//DEBUG_VALUE: fused_kernel:p <- [DW_OP_LLVM_fragment 32 32] $r14
	//DEBUG_VALUE: it <- $r1
	//DEBUG_VALUE: encode_buffer:thresholds_chunk <- $r0
	.loc	1 58 31 is_stmt 1               // dpu/task.c:58:31
	add r1, r1, 1
.Ltmp112:
	//DEBUG_VALUE: it <- $r1
	.loc	1 65 26                         // dpu/task.c:65:26
	add r0, r0, r14
.Ltmp113:
	//DEBUG_VALUE: encode_buffer:thresholds_chunk <- $r0
	.loc	1 58 5                          // dpu/task.c:58:5
	jeq r1, r15, .LBB2_20
.Ltmp114:
.LBB2_16:                               //   Parent Loop BB2_15 Depth=1
                                        // =>  This Loop Header: Depth=2
                                        //       Child Loop BB2_18 Depth 3
	//DEBUG_VALUE: fused_kernel:addresses <- [DW_OP_constu 32, DW_OP_minus, DW_OP_LLVM_fragment 160 32] [$r22+0]
	//DEBUG_VALUE: fused_kernel:addresses <- [DW_OP_constu 36, DW_OP_minus, DW_OP_LLVM_fragment 128 32] [$r22+0]
	//DEBUG_VALUE: fused_kernel:p <- [DW_OP_constu 48, DW_OP_minus, DW_OP_LLVM_fragment 64 32] [$r22+0]
	//DEBUG_VALUE: fused_kernel:addresses <- [DW_OP_constu 32, DW_OP_minus, DW_OP_LLVM_fragment 96 32] [$r22+0]
	//DEBUG_VALUE: fused_kernel:size_bytes <- [DW_OP_constu 24, DW_OP_minus, DW_OP_LLVM_fragment 128 32] [$r22+0]
	//DEBUG_VALUE: fused_kernel:size_bytes <- [DW_OP_constu 28, DW_OP_minus, DW_OP_LLVM_fragment 96 32] [$r22+0]
	//DEBUG_VALUE: fused_kernel:p <- [DW_OP_constu 40, DW_OP_minus, DW_OP_LLVM_fragment 96 32] [$r22+0]
	//DEBUG_VALUE: encode_buffer:input <- $r21
	//DEBUG_VALUE: fused_kernel:pbuffer2 <- $r21
	//DEBUG_VALUE: fused_kernel:input <- $r21
	//DEBUG_VALUE: fused_kernel:reordered <- $r21
	//DEBUG_VALUE: fused_kernel:filter_reductions <- $r21
	//DEBUG_VALUE: encode_buffer:output <- $r20
	//DEBUG_VALUE: fused_kernel:pbuffer1 <- $r20
	//DEBUG_VALUE: fused_kernel:encoded <- $r20
	//DEBUG_VALUE: fused_kernel:hashes <- [DW_OP_LLVM_fragment 32 32] $r20
	//DEBUG_VALUE: fused_kernel:hashes <- [DW_OP_LLVM_fragment 0 32] $r19
	//DEBUG_VALUE: fused_kernel:p <- [DW_OP_LLVM_fragment 192 32] $r19
	//DEBUG_VALUE: fused_kernel:p <- [DW_OP_LLVM_fragment 128 32] $r18
	//DEBUG_VALUE: sample_it <- $r17
	//DEBUG_VALUE: encode_buffer:len <- $r15
	//DEBUG_VALUE: fused_kernel:p <- [DW_OP_LLVM_fragment 0 32] $r15
	//DEBUG_VALUE: encode_buffer:num_bits <- $r14
	//DEBUG_VALUE: fused_kernel:p <- [DW_OP_LLVM_fragment 32 32] $r14
	//DEBUG_VALUE: encode_buffer:thresholds_chunk <- $r0
	//DEBUG_VALUE: encode_buffer:thresholds_chunk <- $r0
	//DEBUG_VALUE: it <- $r1
	//DEBUG_VALUE: input_el <- undef
	//DEBUG_VALUE: output_ptr <- undef
	//DEBUG_VALUE: bit_it <- 0
	.loc	1 61 9                          // dpu/task.c:61:9
	jeq r14, 0, .LBB2_19
.Ltmp115:
// %bb.17:                              //   in Loop: Header=BB2_16 Depth=2
	//DEBUG_VALUE: fused_kernel:addresses <- [DW_OP_constu 32, DW_OP_minus, DW_OP_LLVM_fragment 160 32] [$r22+0]
	//DEBUG_VALUE: fused_kernel:addresses <- [DW_OP_constu 36, DW_OP_minus, DW_OP_LLVM_fragment 128 32] [$r22+0]
	//DEBUG_VALUE: fused_kernel:p <- [DW_OP_constu 48, DW_OP_minus, DW_OP_LLVM_fragment 64 32] [$r22+0]
	//DEBUG_VALUE: fused_kernel:addresses <- [DW_OP_constu 32, DW_OP_minus, DW_OP_LLVM_fragment 96 32] [$r22+0]
	//DEBUG_VALUE: fused_kernel:size_bytes <- [DW_OP_constu 24, DW_OP_minus, DW_OP_LLVM_fragment 128 32] [$r22+0]
	//DEBUG_VALUE: fused_kernel:size_bytes <- [DW_OP_constu 28, DW_OP_minus, DW_OP_LLVM_fragment 96 32] [$r22+0]
	//DEBUG_VALUE: fused_kernel:p <- [DW_OP_constu 40, DW_OP_minus, DW_OP_LLVM_fragment 96 32] [$r22+0]
	//DEBUG_VALUE: encode_buffer:input <- $r21
	//DEBUG_VALUE: fused_kernel:pbuffer2 <- $r21
	//DEBUG_VALUE: fused_kernel:input <- $r21
	//DEBUG_VALUE: fused_kernel:reordered <- $r21
	//DEBUG_VALUE: fused_kernel:filter_reductions <- $r21
	//DEBUG_VALUE: encode_buffer:output <- $r20
	//DEBUG_VALUE: fused_kernel:pbuffer1 <- $r20
	//DEBUG_VALUE: fused_kernel:encoded <- $r20
	//DEBUG_VALUE: fused_kernel:hashes <- [DW_OP_LLVM_fragment 32 32] $r20
	//DEBUG_VALUE: fused_kernel:hashes <- [DW_OP_LLVM_fragment 0 32] $r19
	//DEBUG_VALUE: fused_kernel:p <- [DW_OP_LLVM_fragment 192 32] $r19
	//DEBUG_VALUE: fused_kernel:p <- [DW_OP_LLVM_fragment 128 32] $r18
	//DEBUG_VALUE: sample_it <- $r17
	//DEBUG_VALUE: encode_buffer:len <- $r15
	//DEBUG_VALUE: fused_kernel:p <- [DW_OP_LLVM_fragment 0 32] $r15
	//DEBUG_VALUE: encode_buffer:num_bits <- $r14
	//DEBUG_VALUE: fused_kernel:p <- [DW_OP_LLVM_fragment 32 32] $r14
	//DEBUG_VALUE: it <- $r1
	//DEBUG_VALUE: encode_buffer:thresholds_chunk <- $r0
	.loc	1 0 0 is_stmt 0                 // dpu/task.c:0:0
	add r2, r21, r1
	lbs r2, r2, 0
	.loc	1 60 33 is_stmt 1               // dpu/task.c:60:33
	add r3, r20, r1
.Ltmp116:
	//DEBUG_VALUE: output_ptr <- $r3
	.loc	1 0 33 is_stmt 0                // dpu/task.c:0:33
	move r4, 0
.Ltmp117:
.LBB2_18:                               //   Parent Loop BB2_15 Depth=1
                                        //     Parent Loop BB2_16 Depth=2
                                        // =>    This Inner Loop Header: Depth=3
	//DEBUG_VALUE: fused_kernel:addresses <- [DW_OP_constu 32, DW_OP_minus, DW_OP_LLVM_fragment 160 32] [$r22+0]
	//DEBUG_VALUE: fused_kernel:addresses <- [DW_OP_constu 36, DW_OP_minus, DW_OP_LLVM_fragment 128 32] [$r22+0]
	//DEBUG_VALUE: fused_kernel:p <- [DW_OP_constu 48, DW_OP_minus, DW_OP_LLVM_fragment 64 32] [$r22+0]
	//DEBUG_VALUE: fused_kernel:addresses <- [DW_OP_constu 32, DW_OP_minus, DW_OP_LLVM_fragment 96 32] [$r22+0]
	//DEBUG_VALUE: fused_kernel:size_bytes <- [DW_OP_constu 24, DW_OP_minus, DW_OP_LLVM_fragment 128 32] [$r22+0]
	//DEBUG_VALUE: fused_kernel:size_bytes <- [DW_OP_constu 28, DW_OP_minus, DW_OP_LLVM_fragment 96 32] [$r22+0]
	//DEBUG_VALUE: fused_kernel:p <- [DW_OP_constu 40, DW_OP_minus, DW_OP_LLVM_fragment 96 32] [$r22+0]
	//DEBUG_VALUE: encode_buffer:input <- $r21
	//DEBUG_VALUE: fused_kernel:pbuffer2 <- $r21
	//DEBUG_VALUE: fused_kernel:input <- $r21
	//DEBUG_VALUE: fused_kernel:reordered <- $r21
	//DEBUG_VALUE: fused_kernel:filter_reductions <- $r21
	//DEBUG_VALUE: encode_buffer:output <- $r20
	//DEBUG_VALUE: fused_kernel:pbuffer1 <- $r20
	//DEBUG_VALUE: fused_kernel:encoded <- $r20
	//DEBUG_VALUE: fused_kernel:hashes <- [DW_OP_LLVM_fragment 32 32] $r20
	//DEBUG_VALUE: fused_kernel:hashes <- [DW_OP_LLVM_fragment 0 32] $r19
	//DEBUG_VALUE: fused_kernel:p <- [DW_OP_LLVM_fragment 192 32] $r19
	//DEBUG_VALUE: fused_kernel:p <- [DW_OP_LLVM_fragment 128 32] $r18
	//DEBUG_VALUE: sample_it <- $r17
	//DEBUG_VALUE: encode_buffer:len <- $r15
	//DEBUG_VALUE: fused_kernel:p <- [DW_OP_LLVM_fragment 0 32] $r15
	//DEBUG_VALUE: encode_buffer:num_bits <- $r14
	//DEBUG_VALUE: fused_kernel:p <- [DW_OP_LLVM_fragment 32 32] $r14
	//DEBUG_VALUE: output_ptr <- $r3
	//DEBUG_VALUE: it <- $r1
	//DEBUG_VALUE: encode_buffer:thresholds_chunk <- $r0
	//DEBUG_VALUE: output_ptr <- $r3
	//DEBUG_VALUE: bit_it <- $r4
	.loc	1 62 38 is_stmt 1               // dpu/task.c:62:38
	add r5, r0, r4
	lbu r5, r5, 0
	.loc	1 62 36 is_stmt 0               // dpu/task.c:62:36
	and r6, r2, 255
	sub r5, r6, r5, gtu
	.loc	1 62 25                         // dpu/task.c:62:25
	sb r3, 0, r5
.Ltmp118:
	.loc	1 61 48 is_stmt 1               // dpu/task.c:61:48
	add r4, r4, 1
.Ltmp119:
	//DEBUG_VALUE: bit_it <- $r4
	.loc	1 63 24                         // dpu/task.c:63:24
	add r3, r3, r15
.Ltmp120:
	//DEBUG_VALUE: output_ptr <- $r3
	.loc	1 61 9                          // dpu/task.c:61:9
	jneq r14, r4, .LBB2_18
	jump .LBB2_19
.Ltmp121:
.LBB2_20:                               //   in Loop: Header=BB2_15 Depth=1
	//DEBUG_VALUE: fused_kernel:addresses <- [DW_OP_constu 32, DW_OP_minus, DW_OP_LLVM_fragment 160 32] [$r22+0]
	//DEBUG_VALUE: fused_kernel:addresses <- [DW_OP_constu 36, DW_OP_minus, DW_OP_LLVM_fragment 128 32] [$r22+0]
	//DEBUG_VALUE: fused_kernel:p <- [DW_OP_constu 48, DW_OP_minus, DW_OP_LLVM_fragment 64 32] [$r22+0]
	//DEBUG_VALUE: fused_kernel:addresses <- [DW_OP_constu 32, DW_OP_minus, DW_OP_LLVM_fragment 96 32] [$r22+0]
	//DEBUG_VALUE: fused_kernel:size_bytes <- [DW_OP_constu 24, DW_OP_minus, DW_OP_LLVM_fragment 128 32] [$r22+0]
	//DEBUG_VALUE: fused_kernel:size_bytes <- [DW_OP_constu 28, DW_OP_minus, DW_OP_LLVM_fragment 96 32] [$r22+0]
	//DEBUG_VALUE: fused_kernel:p <- [DW_OP_constu 40, DW_OP_minus, DW_OP_LLVM_fragment 96 32] [$r22+0]
	//DEBUG_VALUE: fused_kernel:pbuffer2 <- $r21
	//DEBUG_VALUE: fused_kernel:input <- $r21
	//DEBUG_VALUE: fused_kernel:reordered <- $r21
	//DEBUG_VALUE: fused_kernel:filter_reductions <- $r21
	//DEBUG_VALUE: fused_kernel:pbuffer1 <- $r20
	//DEBUG_VALUE: fused_kernel:encoded <- $r20
	//DEBUG_VALUE: fused_kernel:hashes <- [DW_OP_LLVM_fragment 32 32] $r20
	//DEBUG_VALUE: fused_kernel:hashes <- [DW_OP_LLVM_fragment 0 32] $r19
	//DEBUG_VALUE: fused_kernel:p <- [DW_OP_LLVM_fragment 192 32] $r19
	//DEBUG_VALUE: fused_kernel:p <- [DW_OP_LLVM_fragment 128 32] $r18
	//DEBUG_VALUE: sample_it <- $r17
	//DEBUG_VALUE: fused_kernel:p <- [DW_OP_LLVM_fragment 0 32] $r15
	//DEBUG_VALUE: fused_kernel:p <- [DW_OP_LLVM_fragment 32 32] $r14
	//DEBUG_VALUE: reorder:order <- undef
	//DEBUG_VALUE: reorder:input <- $r20
	//DEBUG_VALUE: reorder:output <- $r21
	//DEBUG_VALUE: reorder:len <- [DW_OP_constu 48, DW_OP_minus] [$r22+0]
	//DEBUG_VALUE: it <- 0
	.loc	1 0 9 is_stmt 0                 // dpu/task.c:0:9
	lw r2, r22, -48
	lw r11, r22, -40
.Ltmp122:
	.loc	1 71 5 is_stmt 1                // dpu/task.c:71:5
	jeq r2, 0, .LBB2_23
.Ltmp123:
// %bb.21:                              //   in Loop: Header=BB2_15 Depth=1
	//DEBUG_VALUE: reorder:len <- [DW_OP_constu 48, DW_OP_minus] [$r22+0]
	//DEBUG_VALUE: fused_kernel:addresses <- [DW_OP_constu 32, DW_OP_minus, DW_OP_LLVM_fragment 160 32] [$r22+0]
	//DEBUG_VALUE: fused_kernel:addresses <- [DW_OP_constu 36, DW_OP_minus, DW_OP_LLVM_fragment 128 32] [$r22+0]
	//DEBUG_VALUE: fused_kernel:p <- [DW_OP_constu 48, DW_OP_minus, DW_OP_LLVM_fragment 64 32] [$r22+0]
	//DEBUG_VALUE: fused_kernel:addresses <- [DW_OP_constu 32, DW_OP_minus, DW_OP_LLVM_fragment 96 32] [$r22+0]
	//DEBUG_VALUE: fused_kernel:size_bytes <- [DW_OP_constu 24, DW_OP_minus, DW_OP_LLVM_fragment 128 32] [$r22+0]
	//DEBUG_VALUE: fused_kernel:size_bytes <- [DW_OP_constu 28, DW_OP_minus, DW_OP_LLVM_fragment 96 32] [$r22+0]
	//DEBUG_VALUE: fused_kernel:p <- [DW_OP_constu 40, DW_OP_minus, DW_OP_LLVM_fragment 96 32] [$r22+0]
	//DEBUG_VALUE: reorder:output <- $r21
	//DEBUG_VALUE: fused_kernel:pbuffer2 <- $r21
	//DEBUG_VALUE: fused_kernel:input <- $r21
	//DEBUG_VALUE: fused_kernel:reordered <- $r21
	//DEBUG_VALUE: fused_kernel:filter_reductions <- $r21
	//DEBUG_VALUE: reorder:input <- $r20
	//DEBUG_VALUE: fused_kernel:pbuffer1 <- $r20
	//DEBUG_VALUE: fused_kernel:encoded <- $r20
	//DEBUG_VALUE: fused_kernel:hashes <- [DW_OP_LLVM_fragment 32 32] $r20
	//DEBUG_VALUE: fused_kernel:hashes <- [DW_OP_LLVM_fragment 0 32] $r19
	//DEBUG_VALUE: fused_kernel:p <- [DW_OP_LLVM_fragment 192 32] $r19
	//DEBUG_VALUE: fused_kernel:p <- [DW_OP_LLVM_fragment 128 32] $r18
	//DEBUG_VALUE: sample_it <- $r17
	//DEBUG_VALUE: fused_kernel:p <- [DW_OP_LLVM_fragment 0 32] $r15
	//DEBUG_VALUE: fused_kernel:p <- [DW_OP_LLVM_fragment 32 32] $r14
	//DEBUG_VALUE: it <- 0
	.loc	1 0 5 is_stmt 0                 // dpu/task.c:0:5
	lw r0, zero, order
.Ltmp124:
	//DEBUG_VALUE: reorder:order <- $r0
	move r1, r21
.Ltmp125:
.LBB2_22:                               //   Parent Loop BB2_15 Depth=1
                                        // =>  This Inner Loop Header: Depth=2
	//DEBUG_VALUE: reorder:len <- [DW_OP_constu 48, DW_OP_minus] [$r22+0]
	//DEBUG_VALUE: fused_kernel:addresses <- [DW_OP_constu 32, DW_OP_minus, DW_OP_LLVM_fragment 160 32] [$r22+0]
	//DEBUG_VALUE: fused_kernel:addresses <- [DW_OP_constu 36, DW_OP_minus, DW_OP_LLVM_fragment 128 32] [$r22+0]
	//DEBUG_VALUE: fused_kernel:p <- [DW_OP_constu 48, DW_OP_minus, DW_OP_LLVM_fragment 64 32] [$r22+0]
	//DEBUG_VALUE: fused_kernel:addresses <- [DW_OP_constu 32, DW_OP_minus, DW_OP_LLVM_fragment 96 32] [$r22+0]
	//DEBUG_VALUE: fused_kernel:size_bytes <- [DW_OP_constu 24, DW_OP_minus, DW_OP_LLVM_fragment 128 32] [$r22+0]
	//DEBUG_VALUE: fused_kernel:size_bytes <- [DW_OP_constu 28, DW_OP_minus, DW_OP_LLVM_fragment 96 32] [$r22+0]
	//DEBUG_VALUE: fused_kernel:p <- [DW_OP_constu 40, DW_OP_minus, DW_OP_LLVM_fragment 96 32] [$r22+0]
	//DEBUG_VALUE: reorder:output <- $r21
	//DEBUG_VALUE: fused_kernel:pbuffer2 <- $r21
	//DEBUG_VALUE: fused_kernel:input <- $r21
	//DEBUG_VALUE: fused_kernel:reordered <- $r21
	//DEBUG_VALUE: fused_kernel:filter_reductions <- $r21
	//DEBUG_VALUE: reorder:input <- $r20
	//DEBUG_VALUE: fused_kernel:pbuffer1 <- $r20
	//DEBUG_VALUE: fused_kernel:encoded <- $r20
	//DEBUG_VALUE: fused_kernel:hashes <- [DW_OP_LLVM_fragment 32 32] $r20
	//DEBUG_VALUE: fused_kernel:hashes <- [DW_OP_LLVM_fragment 0 32] $r19
	//DEBUG_VALUE: fused_kernel:p <- [DW_OP_LLVM_fragment 192 32] $r19
	//DEBUG_VALUE: fused_kernel:p <- [DW_OP_LLVM_fragment 128 32] $r18
	//DEBUG_VALUE: sample_it <- $r17
	//DEBUG_VALUE: fused_kernel:p <- [DW_OP_LLVM_fragment 0 32] $r15
	//DEBUG_VALUE: fused_kernel:p <- [DW_OP_LLVM_fragment 32 32] $r14
	//DEBUG_VALUE: it <- undef
	.loc	1 72 28 is_stmt 1               // dpu/task.c:72:28
	lhu r3, r0, 0
	.loc	1 72 22 is_stmt 0               // dpu/task.c:72:22
	add r3, r20, r3
	lbs r3, r3, 0
	.loc	1 72 20                         // dpu/task.c:72:20
	sb r1, 0, r3
.Ltmp126:
	//DEBUG_VALUE: it <- [DW_OP_plus_uconst 1, DW_OP_stack_value] undef
	.loc	1 71 24 is_stmt 1               // dpu/task.c:71:24
	add r1, r1, 1
	add r0, r0, 2
	add r2, r2, -1, nz, .LBB2_22
.Ltmp127:
.LBB2_23:                               //   in Loop: Header=BB2_15 Depth=1
	//DEBUG_VALUE: fused_kernel:addresses <- [DW_OP_constu 32, DW_OP_minus, DW_OP_LLVM_fragment 160 32] [$r22+0]
	//DEBUG_VALUE: fused_kernel:addresses <- [DW_OP_constu 36, DW_OP_minus, DW_OP_LLVM_fragment 128 32] [$r22+0]
	//DEBUG_VALUE: fused_kernel:p <- [DW_OP_constu 48, DW_OP_minus, DW_OP_LLVM_fragment 64 32] [$r22+0]
	//DEBUG_VALUE: fused_kernel:addresses <- [DW_OP_constu 32, DW_OP_minus, DW_OP_LLVM_fragment 96 32] [$r22+0]
	//DEBUG_VALUE: fused_kernel:size_bytes <- [DW_OP_constu 24, DW_OP_minus, DW_OP_LLVM_fragment 128 32] [$r22+0]
	//DEBUG_VALUE: fused_kernel:size_bytes <- [DW_OP_constu 28, DW_OP_minus, DW_OP_LLVM_fragment 96 32] [$r22+0]
	//DEBUG_VALUE: fused_kernel:p <- [DW_OP_constu 40, DW_OP_minus, DW_OP_LLVM_fragment 96 32] [$r22+0]
	//DEBUG_VALUE: fused_kernel:pbuffer2 <- $r21
	//DEBUG_VALUE: fused_kernel:input <- $r21
	//DEBUG_VALUE: fused_kernel:reordered <- $r21
	//DEBUG_VALUE: fused_kernel:filter_reductions <- $r21
	//DEBUG_VALUE: fused_kernel:pbuffer1 <- $r20
	//DEBUG_VALUE: fused_kernel:encoded <- $r20
	//DEBUG_VALUE: fused_kernel:hashes <- [DW_OP_LLVM_fragment 32 32] $r20
	//DEBUG_VALUE: fused_kernel:hashes <- [DW_OP_LLVM_fragment 0 32] $r19
	//DEBUG_VALUE: fused_kernel:p <- [DW_OP_LLVM_fragment 192 32] $r19
	//DEBUG_VALUE: fused_kernel:p <- [DW_OP_LLVM_fragment 128 32] $r18
	//DEBUG_VALUE: sample_it <- $r17
	//DEBUG_VALUE: fused_kernel:p <- [DW_OP_LLVM_fragment 0 32] $r15
	//DEBUG_VALUE: fused_kernel:p <- [DW_OP_LLVM_fragment 32 32] $r14
	//DEBUG_VALUE: hash_ptr <- $r20
	//DEBUG_VALUE: input_chunk <- $r21
	//DEBUG_VALUE: filter_it <- 0
	.loc	1 273 9                         // dpu/task.c:273:9
	jeq r11, 0, .LBB2_38
.Ltmp128:
// %bb.24:                              //   in Loop: Header=BB2_15 Depth=1
	//DEBUG_VALUE: fused_kernel:addresses <- [DW_OP_constu 32, DW_OP_minus, DW_OP_LLVM_fragment 160 32] [$r22+0]
	//DEBUG_VALUE: fused_kernel:addresses <- [DW_OP_constu 36, DW_OP_minus, DW_OP_LLVM_fragment 128 32] [$r22+0]
	//DEBUG_VALUE: fused_kernel:p <- [DW_OP_constu 48, DW_OP_minus, DW_OP_LLVM_fragment 64 32] [$r22+0]
	//DEBUG_VALUE: fused_kernel:addresses <- [DW_OP_constu 32, DW_OP_minus, DW_OP_LLVM_fragment 96 32] [$r22+0]
	//DEBUG_VALUE: fused_kernel:size_bytes <- [DW_OP_constu 24, DW_OP_minus, DW_OP_LLVM_fragment 128 32] [$r22+0]
	//DEBUG_VALUE: fused_kernel:size_bytes <- [DW_OP_constu 28, DW_OP_minus, DW_OP_LLVM_fragment 96 32] [$r22+0]
	//DEBUG_VALUE: fused_kernel:p <- [DW_OP_constu 40, DW_OP_minus, DW_OP_LLVM_fragment 96 32] [$r22+0]
	//DEBUG_VALUE: input_chunk <- $r21
	//DEBUG_VALUE: fused_kernel:pbuffer2 <- $r21
	//DEBUG_VALUE: fused_kernel:input <- $r21
	//DEBUG_VALUE: fused_kernel:reordered <- $r21
	//DEBUG_VALUE: fused_kernel:filter_reductions <- $r21
	//DEBUG_VALUE: hash_ptr <- $r20
	//DEBUG_VALUE: fused_kernel:pbuffer1 <- $r20
	//DEBUG_VALUE: fused_kernel:encoded <- $r20
	//DEBUG_VALUE: fused_kernel:hashes <- [DW_OP_LLVM_fragment 32 32] $r20
	//DEBUG_VALUE: fused_kernel:hashes <- [DW_OP_LLVM_fragment 0 32] $r19
	//DEBUG_VALUE: fused_kernel:p <- [DW_OP_LLVM_fragment 192 32] $r19
	//DEBUG_VALUE: fused_kernel:p <- [DW_OP_LLVM_fragment 128 32] $r18
	//DEBUG_VALUE: sample_it <- $r17
	//DEBUG_VALUE: fused_kernel:p <- [DW_OP_LLVM_fragment 0 32] $r15
	//DEBUG_VALUE: fused_kernel:p <- [DW_OP_LLVM_fragment 32 32] $r14
	//DEBUG_VALUE: filter_it <- 0
	.loc	1 0 9 is_stmt 0                 // dpu/task.c:0:9
	lw r1, zero, hash_params
	move r0, hash_params
	lw r0, r0, 4
	.loc	1 273 9                         // dpu/task.c:273:9
	lsl r1, r1, 1
	move r2, 0
	move r3, r21
	move r4, r20, true, .LBB2_25
.Ltmp129:
.LBB2_31:                               //   in Loop: Header=BB2_25 Depth=2
	//DEBUG_VALUE: fused_kernel:addresses <- [DW_OP_constu 32, DW_OP_minus, DW_OP_LLVM_fragment 160 32] [$r22+0]
	//DEBUG_VALUE: fused_kernel:addresses <- [DW_OP_constu 36, DW_OP_minus, DW_OP_LLVM_fragment 128 32] [$r22+0]
	//DEBUG_VALUE: fused_kernel:p <- [DW_OP_constu 48, DW_OP_minus, DW_OP_LLVM_fragment 64 32] [$r22+0]
	//DEBUG_VALUE: fused_kernel:addresses <- [DW_OP_constu 32, DW_OP_minus, DW_OP_LLVM_fragment 96 32] [$r22+0]
	//DEBUG_VALUE: fused_kernel:size_bytes <- [DW_OP_constu 24, DW_OP_minus, DW_OP_LLVM_fragment 128 32] [$r22+0]
	//DEBUG_VALUE: fused_kernel:size_bytes <- [DW_OP_constu 28, DW_OP_minus, DW_OP_LLVM_fragment 96 32] [$r22+0]
	//DEBUG_VALUE: fused_kernel:p <- [DW_OP_constu 40, DW_OP_minus, DW_OP_LLVM_fragment 96 32] [$r22+0]
	//DEBUG_VALUE: fused_kernel:pbuffer2 <- $r21
	//DEBUG_VALUE: fused_kernel:input <- $r21
	//DEBUG_VALUE: fused_kernel:reordered <- $r21
	//DEBUG_VALUE: fused_kernel:filter_reductions <- $r21
	//DEBUG_VALUE: fused_kernel:pbuffer1 <- $r20
	//DEBUG_VALUE: fused_kernel:encoded <- $r20
	//DEBUG_VALUE: fused_kernel:hashes <- [DW_OP_LLVM_fragment 32 32] $r20
	//DEBUG_VALUE: fused_kernel:hashes <- [DW_OP_LLVM_fragment 0 32] $r19
	//DEBUG_VALUE: fused_kernel:p <- [DW_OP_LLVM_fragment 192 32] $r19
	//DEBUG_VALUE: fused_kernel:p <- [DW_OP_LLVM_fragment 128 32] $r18
	//DEBUG_VALUE: sample_it <- $r17
	//DEBUG_VALUE: fused_kernel:p <- [DW_OP_LLVM_fragment 0 32] $r15
	//DEBUG_VALUE: fused_kernel:p <- [DW_OP_LLVM_fragment 32 32] $r14
	//DEBUG_VALUE: hash_ptr <- $r4
	//DEBUG_VALUE: input_chunk <- $r3
	//DEBUG_VALUE: filter_it <- $r2
	.loc	1 289 25 is_stmt 1              // dpu/task.c:289:25
	add r3, r3, r18
.Ltmp130:
	//DEBUG_VALUE: input_chunk <- $r3
	.loc	1 273 59                        // dpu/task.c:273:59
	add r2, r2, 1
.Ltmp131:
	//DEBUG_VALUE: filter_it <- $r2
	.loc	1 290 22                        // dpu/task.c:290:22
	add r4, r4, 2
.Ltmp132:
	//DEBUG_VALUE: hash_ptr <- $r4
	.loc	1 273 9                         // dpu/task.c:273:9
	jeq r2, r11, .LBB2_32
.Ltmp133:
.LBB2_25:                               //   Parent Loop BB2_15 Depth=1
                                        // =>  This Loop Header: Depth=2
                                        //       Child Loop BB2_27 Depth 3
                                        //         Child Loop BB2_29 Depth 4
	//DEBUG_VALUE: fused_kernel:addresses <- [DW_OP_constu 32, DW_OP_minus, DW_OP_LLVM_fragment 160 32] [$r22+0]
	//DEBUG_VALUE: fused_kernel:addresses <- [DW_OP_constu 36, DW_OP_minus, DW_OP_LLVM_fragment 128 32] [$r22+0]
	//DEBUG_VALUE: fused_kernel:p <- [DW_OP_constu 48, DW_OP_minus, DW_OP_LLVM_fragment 64 32] [$r22+0]
	//DEBUG_VALUE: fused_kernel:addresses <- [DW_OP_constu 32, DW_OP_minus, DW_OP_LLVM_fragment 96 32] [$r22+0]
	//DEBUG_VALUE: fused_kernel:size_bytes <- [DW_OP_constu 24, DW_OP_minus, DW_OP_LLVM_fragment 128 32] [$r22+0]
	//DEBUG_VALUE: fused_kernel:size_bytes <- [DW_OP_constu 28, DW_OP_minus, DW_OP_LLVM_fragment 96 32] [$r22+0]
	//DEBUG_VALUE: fused_kernel:p <- [DW_OP_constu 40, DW_OP_minus, DW_OP_LLVM_fragment 96 32] [$r22+0]
	//DEBUG_VALUE: fused_kernel:pbuffer2 <- $r21
	//DEBUG_VALUE: fused_kernel:input <- $r21
	//DEBUG_VALUE: fused_kernel:reordered <- $r21
	//DEBUG_VALUE: fused_kernel:filter_reductions <- $r21
	//DEBUG_VALUE: fused_kernel:pbuffer1 <- $r20
	//DEBUG_VALUE: fused_kernel:encoded <- $r20
	//DEBUG_VALUE: fused_kernel:hashes <- [DW_OP_LLVM_fragment 32 32] $r20
	//DEBUG_VALUE: fused_kernel:hashes <- [DW_OP_LLVM_fragment 0 32] $r19
	//DEBUG_VALUE: fused_kernel:p <- [DW_OP_LLVM_fragment 192 32] $r19
	//DEBUG_VALUE: fused_kernel:p <- [DW_OP_LLVM_fragment 128 32] $r18
	//DEBUG_VALUE: sample_it <- $r17
	//DEBUG_VALUE: fused_kernel:p <- [DW_OP_LLVM_fragment 0 32] $r15
	//DEBUG_VALUE: fused_kernel:p <- [DW_OP_LLVM_fragment 32 32] $r14
	//DEBUG_VALUE: hash_ptr <- $r4
	//DEBUG_VALUE: input_chunk <- $r3
	//DEBUG_VALUE: filter_it <- $r2
	//DEBUG_VALUE: hash_param_row <- $r0
	//DEBUG_VALUE: hash_it <- 0
	.loc	1 0 9 is_stmt 0                 // dpu/task.c:0:9
	jeq r19, 0, .LBB2_31
.Ltmp134:
// %bb.26:                              //   in Loop: Header=BB2_25 Depth=2
	//DEBUG_VALUE: fused_kernel:addresses <- [DW_OP_constu 32, DW_OP_minus, DW_OP_LLVM_fragment 160 32] [$r22+0]
	//DEBUG_VALUE: fused_kernel:addresses <- [DW_OP_constu 36, DW_OP_minus, DW_OP_LLVM_fragment 128 32] [$r22+0]
	//DEBUG_VALUE: fused_kernel:p <- [DW_OP_constu 48, DW_OP_minus, DW_OP_LLVM_fragment 64 32] [$r22+0]
	//DEBUG_VALUE: fused_kernel:addresses <- [DW_OP_constu 32, DW_OP_minus, DW_OP_LLVM_fragment 96 32] [$r22+0]
	//DEBUG_VALUE: fused_kernel:size_bytes <- [DW_OP_constu 24, DW_OP_minus, DW_OP_LLVM_fragment 128 32] [$r22+0]
	//DEBUG_VALUE: fused_kernel:size_bytes <- [DW_OP_constu 28, DW_OP_minus, DW_OP_LLVM_fragment 96 32] [$r22+0]
	//DEBUG_VALUE: fused_kernel:p <- [DW_OP_constu 40, DW_OP_minus, DW_OP_LLVM_fragment 96 32] [$r22+0]
	//DEBUG_VALUE: fused_kernel:pbuffer2 <- $r21
	//DEBUG_VALUE: fused_kernel:input <- $r21
	//DEBUG_VALUE: fused_kernel:reordered <- $r21
	//DEBUG_VALUE: fused_kernel:filter_reductions <- $r21
	//DEBUG_VALUE: fused_kernel:pbuffer1 <- $r20
	//DEBUG_VALUE: fused_kernel:encoded <- $r20
	//DEBUG_VALUE: fused_kernel:hashes <- [DW_OP_LLVM_fragment 32 32] $r20
	//DEBUG_VALUE: fused_kernel:hashes <- [DW_OP_LLVM_fragment 0 32] $r19
	//DEBUG_VALUE: fused_kernel:p <- [DW_OP_LLVM_fragment 192 32] $r19
	//DEBUG_VALUE: fused_kernel:p <- [DW_OP_LLVM_fragment 128 32] $r18
	//DEBUG_VALUE: sample_it <- $r17
	//DEBUG_VALUE: fused_kernel:p <- [DW_OP_LLVM_fragment 0 32] $r15
	//DEBUG_VALUE: fused_kernel:p <- [DW_OP_LLVM_fragment 32 32] $r14
	//DEBUG_VALUE: hash_ptr <- $r4
	//DEBUG_VALUE: input_chunk <- $r3
	//DEBUG_VALUE: filter_it <- $r2
	//DEBUG_VALUE: hash_param_row <- $r0
	//DEBUG_VALUE: hash_it <- 0
	move r5, 0
	move r6, r0, true, .LBB2_27
.Ltmp135:
.LBB2_30:                               //   in Loop: Header=BB2_27 Depth=3
	//DEBUG_VALUE: fused_kernel:addresses <- [DW_OP_constu 32, DW_OP_minus, DW_OP_LLVM_fragment 160 32] [$r22+0]
	//DEBUG_VALUE: fused_kernel:addresses <- [DW_OP_constu 36, DW_OP_minus, DW_OP_LLVM_fragment 128 32] [$r22+0]
	//DEBUG_VALUE: fused_kernel:p <- [DW_OP_constu 48, DW_OP_minus, DW_OP_LLVM_fragment 64 32] [$r22+0]
	//DEBUG_VALUE: fused_kernel:addresses <- [DW_OP_constu 32, DW_OP_minus, DW_OP_LLVM_fragment 96 32] [$r22+0]
	//DEBUG_VALUE: fused_kernel:size_bytes <- [DW_OP_constu 24, DW_OP_minus, DW_OP_LLVM_fragment 128 32] [$r22+0]
	//DEBUG_VALUE: fused_kernel:size_bytes <- [DW_OP_constu 28, DW_OP_minus, DW_OP_LLVM_fragment 96 32] [$r22+0]
	//DEBUG_VALUE: fused_kernel:p <- [DW_OP_constu 40, DW_OP_minus, DW_OP_LLVM_fragment 96 32] [$r22+0]
	//DEBUG_VALUE: fused_kernel:pbuffer2 <- $r21
	//DEBUG_VALUE: fused_kernel:input <- $r21
	//DEBUG_VALUE: fused_kernel:reordered <- $r21
	//DEBUG_VALUE: fused_kernel:filter_reductions <- $r21
	//DEBUG_VALUE: fused_kernel:pbuffer1 <- $r20
	//DEBUG_VALUE: fused_kernel:encoded <- $r20
	//DEBUG_VALUE: fused_kernel:hashes <- [DW_OP_LLVM_fragment 32 32] $r20
	//DEBUG_VALUE: fused_kernel:hashes <- [DW_OP_LLVM_fragment 0 32] $r19
	//DEBUG_VALUE: fused_kernel:p <- [DW_OP_LLVM_fragment 192 32] $r19
	//DEBUG_VALUE: h3_hash:len <- $r18
	//DEBUG_VALUE: fused_kernel:p <- [DW_OP_LLVM_fragment 128 32] $r18
	//DEBUG_VALUE: sample_it <- $r17
	//DEBUG_VALUE: fused_kernel:p <- [DW_OP_LLVM_fragment 0 32] $r15
	//DEBUG_VALUE: fused_kernel:p <- [DW_OP_LLVM_fragment 32 32] $r14
	//DEBUG_VALUE: h3_hash:result <- $r7
	//DEBUG_VALUE: h3_hash:params <- $r6
	//DEBUG_VALUE: hash_param_row <- $r6
	//DEBUG_VALUE: hash_it <- $r5
	//DEBUG_VALUE: h3_hash:output <- $r4
	//DEBUG_VALUE: hash_ptr <- $r4
	//DEBUG_VALUE: h3_hash:input <- $r3
	//DEBUG_VALUE: input_chunk <- $r3
	//DEBUG_VALUE: filter_it <- $r2
	.loc	1 87 13 is_stmt 1               // dpu/task.c:87:13
	sh r4, 0, r7
.Ltmp136:
	.loc	1 286 26                        // dpu/task.c:286:26
	add r4, r4, 2
.Ltmp137:
	//DEBUG_VALUE: hash_ptr <- $r4
	.loc	1 279 61                        // dpu/task.c:279:61
	add r5, r5, 1
.Ltmp138:
	//DEBUG_VALUE: hash_it <- $r5
	.loc	1 279 13 is_stmt 0              // dpu/task.c:279:13
	add r6, r6, r1
.Ltmp139:
	//DEBUG_VALUE: hash_param_row <- $r6
	.loc	1 0 13                          // dpu/task.c:0:13
	jeq r5, r19, .LBB2_31
.Ltmp140:
.LBB2_27:                               //   Parent Loop BB2_15 Depth=1
                                        //     Parent Loop BB2_25 Depth=2
                                        // =>    This Loop Header: Depth=3
                                        //         Child Loop BB2_29 Depth 4
	//DEBUG_VALUE: fused_kernel:addresses <- [DW_OP_constu 32, DW_OP_minus, DW_OP_LLVM_fragment 160 32] [$r22+0]
	//DEBUG_VALUE: fused_kernel:addresses <- [DW_OP_constu 36, DW_OP_minus, DW_OP_LLVM_fragment 128 32] [$r22+0]
	//DEBUG_VALUE: fused_kernel:p <- [DW_OP_constu 48, DW_OP_minus, DW_OP_LLVM_fragment 64 32] [$r22+0]
	//DEBUG_VALUE: fused_kernel:addresses <- [DW_OP_constu 32, DW_OP_minus, DW_OP_LLVM_fragment 96 32] [$r22+0]
	//DEBUG_VALUE: fused_kernel:size_bytes <- [DW_OP_constu 24, DW_OP_minus, DW_OP_LLVM_fragment 128 32] [$r22+0]
	//DEBUG_VALUE: fused_kernel:size_bytes <- [DW_OP_constu 28, DW_OP_minus, DW_OP_LLVM_fragment 96 32] [$r22+0]
	//DEBUG_VALUE: fused_kernel:p <- [DW_OP_constu 40, DW_OP_minus, DW_OP_LLVM_fragment 96 32] [$r22+0]
	//DEBUG_VALUE: fused_kernel:pbuffer2 <- $r21
	//DEBUG_VALUE: fused_kernel:input <- $r21
	//DEBUG_VALUE: fused_kernel:reordered <- $r21
	//DEBUG_VALUE: fused_kernel:filter_reductions <- $r21
	//DEBUG_VALUE: fused_kernel:pbuffer1 <- $r20
	//DEBUG_VALUE: fused_kernel:encoded <- $r20
	//DEBUG_VALUE: fused_kernel:hashes <- [DW_OP_LLVM_fragment 32 32] $r20
	//DEBUG_VALUE: fused_kernel:hashes <- [DW_OP_LLVM_fragment 0 32] $r19
	//DEBUG_VALUE: fused_kernel:p <- [DW_OP_LLVM_fragment 192 32] $r19
	//DEBUG_VALUE: fused_kernel:p <- [DW_OP_LLVM_fragment 128 32] $r18
	//DEBUG_VALUE: sample_it <- $r17
	//DEBUG_VALUE: fused_kernel:p <- [DW_OP_LLVM_fragment 0 32] $r15
	//DEBUG_VALUE: fused_kernel:p <- [DW_OP_LLVM_fragment 32 32] $r14
	//DEBUG_VALUE: hash_ptr <- $r4
	//DEBUG_VALUE: input_chunk <- $r3
	//DEBUG_VALUE: filter_it <- $r2
	//DEBUG_VALUE: hash_ptr <- $r4
	//DEBUG_VALUE: hash_param_row <- $r6
	//DEBUG_VALUE: hash_it <- $r5
	//DEBUG_VALUE: h3_hash:input <- $r3
	//DEBUG_VALUE: h3_hash:output <- $r4
	//DEBUG_VALUE: h3_hash:params <- $r6
	//DEBUG_VALUE: h3_hash:len <- $r18
	.loc	1 79 18 is_stmt 1               // dpu/task.c:79:18
	lhu r7, r6, 0
	.loc	1 79 31 is_stmt 0               // dpu/task.c:79:31
	lbu r8, r3, 0
	.loc	1 79 28                         // dpu/task.c:79:28
	and r7, r8, r7
	//DEBUG_VALUE: i <- 1
.Ltmp141:
	//DEBUG_VALUE: h3_hash:result <- $r7
	.loc	1 0 28                          // dpu/task.c:0:28
	jltu r18, 2, .LBB2_30
.Ltmp142:
// %bb.28:                              //   in Loop: Header=BB2_27 Depth=3
	//DEBUG_VALUE: fused_kernel:addresses <- [DW_OP_constu 32, DW_OP_minus, DW_OP_LLVM_fragment 160 32] [$r22+0]
	//DEBUG_VALUE: fused_kernel:addresses <- [DW_OP_constu 36, DW_OP_minus, DW_OP_LLVM_fragment 128 32] [$r22+0]
	//DEBUG_VALUE: fused_kernel:p <- [DW_OP_constu 48, DW_OP_minus, DW_OP_LLVM_fragment 64 32] [$r22+0]
	//DEBUG_VALUE: fused_kernel:addresses <- [DW_OP_constu 32, DW_OP_minus, DW_OP_LLVM_fragment 96 32] [$r22+0]
	//DEBUG_VALUE: fused_kernel:size_bytes <- [DW_OP_constu 24, DW_OP_minus, DW_OP_LLVM_fragment 128 32] [$r22+0]
	//DEBUG_VALUE: fused_kernel:size_bytes <- [DW_OP_constu 28, DW_OP_minus, DW_OP_LLVM_fragment 96 32] [$r22+0]
	//DEBUG_VALUE: fused_kernel:p <- [DW_OP_constu 40, DW_OP_minus, DW_OP_LLVM_fragment 96 32] [$r22+0]
	//DEBUG_VALUE: fused_kernel:pbuffer2 <- $r21
	//DEBUG_VALUE: fused_kernel:input <- $r21
	//DEBUG_VALUE: fused_kernel:reordered <- $r21
	//DEBUG_VALUE: fused_kernel:filter_reductions <- $r21
	//DEBUG_VALUE: fused_kernel:pbuffer1 <- $r20
	//DEBUG_VALUE: fused_kernel:encoded <- $r20
	//DEBUG_VALUE: fused_kernel:hashes <- [DW_OP_LLVM_fragment 32 32] $r20
	//DEBUG_VALUE: fused_kernel:hashes <- [DW_OP_LLVM_fragment 0 32] $r19
	//DEBUG_VALUE: fused_kernel:p <- [DW_OP_LLVM_fragment 192 32] $r19
	//DEBUG_VALUE: h3_hash:len <- $r18
	//DEBUG_VALUE: fused_kernel:p <- [DW_OP_LLVM_fragment 128 32] $r18
	//DEBUG_VALUE: sample_it <- $r17
	//DEBUG_VALUE: fused_kernel:p <- [DW_OP_LLVM_fragment 0 32] $r15
	//DEBUG_VALUE: fused_kernel:p <- [DW_OP_LLVM_fragment 32 32] $r14
	//DEBUG_VALUE: h3_hash:result <- $r7
	//DEBUG_VALUE: h3_hash:params <- $r6
	//DEBUG_VALUE: hash_param_row <- $r6
	//DEBUG_VALUE: hash_it <- $r5
	//DEBUG_VALUE: h3_hash:output <- $r4
	//DEBUG_VALUE: hash_ptr <- $r4
	//DEBUG_VALUE: h3_hash:input <- $r3
	//DEBUG_VALUE: input_chunk <- $r3
	//DEBUG_VALUE: filter_it <- $r2
	//DEBUG_VALUE: i <- 1
	move r8, 1
.Ltmp143:
.LBB2_29:                               //   Parent Loop BB2_15 Depth=1
                                        //     Parent Loop BB2_25 Depth=2
                                        //       Parent Loop BB2_27 Depth=3
                                        // =>      This Inner Loop Header: Depth=4
	//DEBUG_VALUE: fused_kernel:addresses <- [DW_OP_constu 32, DW_OP_minus, DW_OP_LLVM_fragment 160 32] [$r22+0]
	//DEBUG_VALUE: fused_kernel:addresses <- [DW_OP_constu 36, DW_OP_minus, DW_OP_LLVM_fragment 128 32] [$r22+0]
	//DEBUG_VALUE: fused_kernel:p <- [DW_OP_constu 48, DW_OP_minus, DW_OP_LLVM_fragment 64 32] [$r22+0]
	//DEBUG_VALUE: fused_kernel:addresses <- [DW_OP_constu 32, DW_OP_minus, DW_OP_LLVM_fragment 96 32] [$r22+0]
	//DEBUG_VALUE: fused_kernel:size_bytes <- [DW_OP_constu 24, DW_OP_minus, DW_OP_LLVM_fragment 128 32] [$r22+0]
	//DEBUG_VALUE: fused_kernel:size_bytes <- [DW_OP_constu 28, DW_OP_minus, DW_OP_LLVM_fragment 96 32] [$r22+0]
	//DEBUG_VALUE: fused_kernel:p <- [DW_OP_constu 40, DW_OP_minus, DW_OP_LLVM_fragment 96 32] [$r22+0]
	//DEBUG_VALUE: fused_kernel:pbuffer2 <- $r21
	//DEBUG_VALUE: fused_kernel:input <- $r21
	//DEBUG_VALUE: fused_kernel:reordered <- $r21
	//DEBUG_VALUE: fused_kernel:filter_reductions <- $r21
	//DEBUG_VALUE: fused_kernel:pbuffer1 <- $r20
	//DEBUG_VALUE: fused_kernel:encoded <- $r20
	//DEBUG_VALUE: fused_kernel:hashes <- [DW_OP_LLVM_fragment 32 32] $r20
	//DEBUG_VALUE: fused_kernel:hashes <- [DW_OP_LLVM_fragment 0 32] $r19
	//DEBUG_VALUE: fused_kernel:p <- [DW_OP_LLVM_fragment 192 32] $r19
	//DEBUG_VALUE: h3_hash:len <- $r18
	//DEBUG_VALUE: fused_kernel:p <- [DW_OP_LLVM_fragment 128 32] $r18
	//DEBUG_VALUE: sample_it <- $r17
	//DEBUG_VALUE: fused_kernel:p <- [DW_OP_LLVM_fragment 0 32] $r15
	//DEBUG_VALUE: fused_kernel:p <- [DW_OP_LLVM_fragment 32 32] $r14
	//DEBUG_VALUE: h3_hash:result <- $r7
	//DEBUG_VALUE: h3_hash:params <- $r6
	//DEBUG_VALUE: hash_param_row <- $r6
	//DEBUG_VALUE: hash_it <- $r5
	//DEBUG_VALUE: h3_hash:output <- $r4
	//DEBUG_VALUE: hash_ptr <- $r4
	//DEBUG_VALUE: h3_hash:input <- $r3
	//DEBUG_VALUE: input_chunk <- $r3
	//DEBUG_VALUE: filter_it <- $r2
	//DEBUG_VALUE: h3_hash:result <- $r7
	//DEBUG_VALUE: i <- $r8
	.loc	1 83 19 is_stmt 1               // dpu/task.c:83:19
	lsl_add r9, r6, r8, 1
	lhu r9, r9, 0
	.loc	1 83 32 is_stmt 0               // dpu/task.c:83:32
	add r10, r3, r8
	lbu r10, r10, 0
	.loc	1 83 29                         // dpu/task.c:83:29
	and r9, r10, r9
.Ltmp144:
	.loc	1 81 29 is_stmt 1               // dpu/task.c:81:29
	add r8, r8, 1
.Ltmp145:
	//DEBUG_VALUE: i <- $r8
	.loc	1 83 16                         // dpu/task.c:83:16
	xor r7, r9, r7
.Ltmp146:
	//DEBUG_VALUE: h3_hash:result <- $r7
	.loc	1 0 16 is_stmt 0                // dpu/task.c:0:16
	jneq r18, r8, .LBB2_29
	jump .LBB2_30
.Ltmp147:
.LBB2_32:                               //   in Loop: Header=BB2_15 Depth=1
	//DEBUG_VALUE: fused_kernel:addresses <- [DW_OP_constu 32, DW_OP_minus, DW_OP_LLVM_fragment 160 32] [$r22+0]
	//DEBUG_VALUE: fused_kernel:addresses <- [DW_OP_constu 36, DW_OP_minus, DW_OP_LLVM_fragment 128 32] [$r22+0]
	//DEBUG_VALUE: fused_kernel:p <- [DW_OP_constu 48, DW_OP_minus, DW_OP_LLVM_fragment 64 32] [$r22+0]
	//DEBUG_VALUE: fused_kernel:addresses <- [DW_OP_constu 32, DW_OP_minus, DW_OP_LLVM_fragment 96 32] [$r22+0]
	//DEBUG_VALUE: fused_kernel:size_bytes <- [DW_OP_constu 24, DW_OP_minus, DW_OP_LLVM_fragment 128 32] [$r22+0]
	//DEBUG_VALUE: fused_kernel:size_bytes <- [DW_OP_constu 28, DW_OP_minus, DW_OP_LLVM_fragment 96 32] [$r22+0]
	//DEBUG_VALUE: fused_kernel:p <- [DW_OP_constu 40, DW_OP_minus, DW_OP_LLVM_fragment 96 32] [$r22+0]
	//DEBUG_VALUE: fused_kernel:pbuffer2 <- $r21
	//DEBUG_VALUE: fused_kernel:input <- $r21
	//DEBUG_VALUE: fused_kernel:reordered <- $r21
	//DEBUG_VALUE: fused_kernel:filter_reductions <- $r21
	//DEBUG_VALUE: fused_kernel:pbuffer1 <- $r20
	//DEBUG_VALUE: fused_kernel:encoded <- $r20
	//DEBUG_VALUE: fused_kernel:hashes <- [DW_OP_LLVM_fragment 32 32] $r20
	//DEBUG_VALUE: fused_kernel:hashes <- [DW_OP_LLVM_fragment 0 32] $r19
	//DEBUG_VALUE: fused_kernel:p <- [DW_OP_LLVM_fragment 192 32] $r19
	//DEBUG_VALUE: fused_kernel:p <- [DW_OP_LLVM_fragment 128 32] $r18
	//DEBUG_VALUE: sample_it <- $r17
	//DEBUG_VALUE: fused_kernel:p <- [DW_OP_LLVM_fragment 0 32] $r15
	//DEBUG_VALUE: fused_kernel:p <- [DW_OP_LLVM_fragment 32 32] $r14
	//DEBUG_VALUE: hash_ptr <- $r4
	//DEBUG_VALUE: input_chunk <- $r3
	//DEBUG_VALUE: hash_ptr <- $r20
	//DEBUG_VALUE: filter_ptr <- undef
	//DEBUG_VALUE: filter_it <- 0
	.loc	1 305 9 is_stmt 1               // dpu/task.c:305:9
	jeq r11, 0, .LBB2_38
.Ltmp148:
// %bb.33:                              //   in Loop: Header=BB2_15 Depth=1
	//DEBUG_VALUE: fused_kernel:addresses <- [DW_OP_constu 32, DW_OP_minus, DW_OP_LLVM_fragment 160 32] [$r22+0]
	//DEBUG_VALUE: fused_kernel:addresses <- [DW_OP_constu 36, DW_OP_minus, DW_OP_LLVM_fragment 128 32] [$r22+0]
	//DEBUG_VALUE: fused_kernel:p <- [DW_OP_constu 48, DW_OP_minus, DW_OP_LLVM_fragment 64 32] [$r22+0]
	//DEBUG_VALUE: fused_kernel:addresses <- [DW_OP_constu 32, DW_OP_minus, DW_OP_LLVM_fragment 96 32] [$r22+0]
	//DEBUG_VALUE: fused_kernel:size_bytes <- [DW_OP_constu 24, DW_OP_minus, DW_OP_LLVM_fragment 128 32] [$r22+0]
	//DEBUG_VALUE: fused_kernel:size_bytes <- [DW_OP_constu 28, DW_OP_minus, DW_OP_LLVM_fragment 96 32] [$r22+0]
	//DEBUG_VALUE: fused_kernel:p <- [DW_OP_constu 40, DW_OP_minus, DW_OP_LLVM_fragment 96 32] [$r22+0]
	//DEBUG_VALUE: fused_kernel:pbuffer2 <- $r21
	//DEBUG_VALUE: fused_kernel:input <- $r21
	//DEBUG_VALUE: fused_kernel:reordered <- $r21
	//DEBUG_VALUE: fused_kernel:filter_reductions <- $r21
	//DEBUG_VALUE: hash_ptr <- $r20
	//DEBUG_VALUE: fused_kernel:pbuffer1 <- $r20
	//DEBUG_VALUE: fused_kernel:encoded <- $r20
	//DEBUG_VALUE: fused_kernel:hashes <- [DW_OP_LLVM_fragment 32 32] $r20
	//DEBUG_VALUE: fused_kernel:hashes <- [DW_OP_LLVM_fragment 0 32] $r19
	//DEBUG_VALUE: fused_kernel:p <- [DW_OP_LLVM_fragment 192 32] $r19
	//DEBUG_VALUE: fused_kernel:p <- [DW_OP_LLVM_fragment 128 32] $r18
	//DEBUG_VALUE: sample_it <- $r17
	//DEBUG_VALUE: fused_kernel:p <- [DW_OP_LLVM_fragment 0 32] $r15
	//DEBUG_VALUE: fused_kernel:p <- [DW_OP_LLVM_fragment 32 32] $r14
	//DEBUG_VALUE: input_chunk <- $r3
	.loc	1 304 34                        // dpu/task.c:304:34
	move r0, filters
	lw r0, r0, 4
.Ltmp149:
	//DEBUG_VALUE: filter_ptr <- $r0
	.loc	1 0 34 is_stmt 0                // dpu/task.c:0:34
	move r1, 0
	move r2, r20, true, .LBB2_34
.Ltmp150:
.LBB2_37:                               //   in Loop: Header=BB2_34 Depth=2
	//DEBUG_VALUE: fused_kernel:addresses <- [DW_OP_constu 32, DW_OP_minus, DW_OP_LLVM_fragment 160 32] [$r22+0]
	//DEBUG_VALUE: fused_kernel:addresses <- [DW_OP_constu 36, DW_OP_minus, DW_OP_LLVM_fragment 128 32] [$r22+0]
	//DEBUG_VALUE: fused_kernel:p <- [DW_OP_constu 48, DW_OP_minus, DW_OP_LLVM_fragment 64 32] [$r22+0]
	//DEBUG_VALUE: fused_kernel:addresses <- [DW_OP_constu 32, DW_OP_minus, DW_OP_LLVM_fragment 96 32] [$r22+0]
	//DEBUG_VALUE: fused_kernel:size_bytes <- [DW_OP_constu 24, DW_OP_minus, DW_OP_LLVM_fragment 128 32] [$r22+0]
	//DEBUG_VALUE: fused_kernel:size_bytes <- [DW_OP_constu 28, DW_OP_minus, DW_OP_LLVM_fragment 96 32] [$r22+0]
	//DEBUG_VALUE: fused_kernel:p <- [DW_OP_constu 40, DW_OP_minus, DW_OP_LLVM_fragment 96 32] [$r22+0]
	//DEBUG_VALUE: fused_kernel:pbuffer2 <- $r21
	//DEBUG_VALUE: fused_kernel:input <- $r21
	//DEBUG_VALUE: fused_kernel:reordered <- $r21
	//DEBUG_VALUE: fused_kernel:filter_reductions <- $r21
	//DEBUG_VALUE: fused_kernel:pbuffer1 <- $r20
	//DEBUG_VALUE: fused_kernel:encoded <- $r20
	//DEBUG_VALUE: fused_kernel:hashes <- [DW_OP_LLVM_fragment 32 32] $r20
	//DEBUG_VALUE: fused_kernel:hashes <- [DW_OP_LLVM_fragment 0 32] $r19
	//DEBUG_VALUE: fused_kernel:p <- [DW_OP_LLVM_fragment 192 32] $r19
	//DEBUG_VALUE: fused_kernel:p <- [DW_OP_LLVM_fragment 128 32] $r18
	//DEBUG_VALUE: sample_it <- $r17
	//DEBUG_VALUE: fused_kernel:p <- [DW_OP_LLVM_fragment 0 32] $r15
	//DEBUG_VALUE: fused_kernel:p <- [DW_OP_LLVM_fragment 32 32] $r14
	//DEBUG_VALUE: hash_ptr <- $r2
	//DEBUG_VALUE: filter_it <- $r1
	//DEBUG_VALUE: filter_ptr <- $r0
	.loc	1 306 13 is_stmt 1              // dpu/task.c:306:13
	add r4, r21, r1
	.loc	1 306 42 is_stmt 0              // dpu/task.c:306:42
	sb r4, 0, r3
	.loc	1 312 35 is_stmt 1              // dpu/task.c:312:35
	lw r3, zero, filters
.Ltmp151:
	.loc	1 305 9                         // dpu/task.c:305:9
	add r2, r2, r16
.Ltmp152:
	//DEBUG_VALUE: hash_ptr <- $r2
	.loc	1 305 59 is_stmt 0              // dpu/task.c:305:59
	add r1, r1, 1
.Ltmp153:
	//DEBUG_VALUE: filter_it <- $r1
	.loc	1 312 24 is_stmt 1              // dpu/task.c:312:24
	add r0, r0, r3
.Ltmp154:
	//DEBUG_VALUE: filter_ptr <- $r0
	.loc	1 305 9                         // dpu/task.c:305:9
	jeq r1, r11, .LBB2_38
.Ltmp155:
.LBB2_34:                               //   Parent Loop BB2_15 Depth=1
                                        // =>  This Loop Header: Depth=2
                                        //       Child Loop BB2_36 Depth 3
	//DEBUG_VALUE: fused_kernel:addresses <- [DW_OP_constu 32, DW_OP_minus, DW_OP_LLVM_fragment 160 32] [$r22+0]
	//DEBUG_VALUE: fused_kernel:addresses <- [DW_OP_constu 36, DW_OP_minus, DW_OP_LLVM_fragment 128 32] [$r22+0]
	//DEBUG_VALUE: fused_kernel:p <- [DW_OP_constu 48, DW_OP_minus, DW_OP_LLVM_fragment 64 32] [$r22+0]
	//DEBUG_VALUE: fused_kernel:addresses <- [DW_OP_constu 32, DW_OP_minus, DW_OP_LLVM_fragment 96 32] [$r22+0]
	//DEBUG_VALUE: fused_kernel:size_bytes <- [DW_OP_constu 24, DW_OP_minus, DW_OP_LLVM_fragment 128 32] [$r22+0]
	//DEBUG_VALUE: fused_kernel:size_bytes <- [DW_OP_constu 28, DW_OP_minus, DW_OP_LLVM_fragment 96 32] [$r22+0]
	//DEBUG_VALUE: fused_kernel:p <- [DW_OP_constu 40, DW_OP_minus, DW_OP_LLVM_fragment 96 32] [$r22+0]
	//DEBUG_VALUE: fused_kernel:pbuffer2 <- $r21
	//DEBUG_VALUE: fused_kernel:input <- $r21
	//DEBUG_VALUE: fused_kernel:reordered <- $r21
	//DEBUG_VALUE: fused_kernel:filter_reductions <- $r21
	//DEBUG_VALUE: fused_kernel:pbuffer1 <- $r20
	//DEBUG_VALUE: fused_kernel:encoded <- $r20
	//DEBUG_VALUE: fused_kernel:hashes <- [DW_OP_LLVM_fragment 32 32] $r20
	//DEBUG_VALUE: fused_kernel:hashes <- [DW_OP_LLVM_fragment 0 32] $r19
	//DEBUG_VALUE: fused_kernel:p <- [DW_OP_LLVM_fragment 192 32] $r19
	//DEBUG_VALUE: fused_kernel:p <- [DW_OP_LLVM_fragment 128 32] $r18
	//DEBUG_VALUE: sample_it <- $r17
	//DEBUG_VALUE: fused_kernel:p <- [DW_OP_LLVM_fragment 0 32] $r15
	//DEBUG_VALUE: fused_kernel:p <- [DW_OP_LLVM_fragment 32 32] $r14
	//DEBUG_VALUE: filter_ptr <- $r0
	//DEBUG_VALUE: hash_ptr <- $r2
	//DEBUG_VALUE: filter_ptr <- $r0
	//DEBUG_VALUE: filter_it <- $r1
	//DEBUG_VALUE: and_reduce:input <- $r2
	//DEBUG_VALUE: and_reduce:lookup_table <- $r0
	//DEBUG_VALUE: and_reduce:len <- $r19
	.loc	1 92 39                         // dpu/task.c:92:39
	lhu r3, r2, 0
.Ltmp156:
	//DEBUG_VALUE: get_bit:byte <- undef
	//DEBUG_VALUE: get_bit:data <- $r0
	//DEBUG_VALUE: get_bit:index <- [DW_OP_LLVM_convert 16 7, DW_OP_LLVM_convert 32 7, DW_OP_stack_value] $r3
	.loc	1 50 13                         // dpu/task.c:50:13
	lsr_add r4, r0, r3, 3
	lbu r4, r4, 0
	.loc	1 48 21                         // dpu/task.c:48:21
	and r3, r3, 7
.Ltmp157:
	//DEBUG_VALUE: get_bit:bit <- [DW_OP_LLVM_convert 16 7, DW_OP_LLVM_convert 32 7, DW_OP_constu 7, DW_OP_and, DW_OP_stack_value] undef
	.loc	1 50 24                         // dpu/task.c:50:24
	lsr r3, r4, r3
	.loc	1 50 12 is_stmt 0               // dpu/task.c:50:12
	and r3, r3, 1
	//DEBUG_VALUE: i <- 1
.Ltmp158:
	//DEBUG_VALUE: and_reduce:result <- undef
	.loc	1 0 12                          // dpu/task.c:0:12
	jltu r19, 2, .LBB2_37
.Ltmp159:
// %bb.35:                              //   in Loop: Header=BB2_34 Depth=2
	//DEBUG_VALUE: fused_kernel:addresses <- [DW_OP_constu 32, DW_OP_minus, DW_OP_LLVM_fragment 160 32] [$r22+0]
	//DEBUG_VALUE: fused_kernel:addresses <- [DW_OP_constu 36, DW_OP_minus, DW_OP_LLVM_fragment 128 32] [$r22+0]
	//DEBUG_VALUE: fused_kernel:p <- [DW_OP_constu 48, DW_OP_minus, DW_OP_LLVM_fragment 64 32] [$r22+0]
	//DEBUG_VALUE: fused_kernel:addresses <- [DW_OP_constu 32, DW_OP_minus, DW_OP_LLVM_fragment 96 32] [$r22+0]
	//DEBUG_VALUE: fused_kernel:size_bytes <- [DW_OP_constu 24, DW_OP_minus, DW_OP_LLVM_fragment 128 32] [$r22+0]
	//DEBUG_VALUE: fused_kernel:size_bytes <- [DW_OP_constu 28, DW_OP_minus, DW_OP_LLVM_fragment 96 32] [$r22+0]
	//DEBUG_VALUE: fused_kernel:p <- [DW_OP_constu 40, DW_OP_minus, DW_OP_LLVM_fragment 96 32] [$r22+0]
	//DEBUG_VALUE: fused_kernel:pbuffer2 <- $r21
	//DEBUG_VALUE: fused_kernel:input <- $r21
	//DEBUG_VALUE: fused_kernel:reordered <- $r21
	//DEBUG_VALUE: fused_kernel:filter_reductions <- $r21
	//DEBUG_VALUE: fused_kernel:pbuffer1 <- $r20
	//DEBUG_VALUE: fused_kernel:encoded <- $r20
	//DEBUG_VALUE: fused_kernel:hashes <- [DW_OP_LLVM_fragment 32 32] $r20
	//DEBUG_VALUE: and_reduce:len <- $r19
	//DEBUG_VALUE: fused_kernel:hashes <- [DW_OP_LLVM_fragment 0 32] $r19
	//DEBUG_VALUE: fused_kernel:p <- [DW_OP_LLVM_fragment 192 32] $r19
	//DEBUG_VALUE: fused_kernel:p <- [DW_OP_LLVM_fragment 128 32] $r18
	//DEBUG_VALUE: sample_it <- $r17
	//DEBUG_VALUE: fused_kernel:p <- [DW_OP_LLVM_fragment 0 32] $r15
	//DEBUG_VALUE: fused_kernel:p <- [DW_OP_LLVM_fragment 32 32] $r14
	//DEBUG_VALUE: and_reduce:input <- $r2
	//DEBUG_VALUE: hash_ptr <- $r2
	//DEBUG_VALUE: filter_it <- $r1
	//DEBUG_VALUE: get_bit:data <- $r0
	//DEBUG_VALUE: and_reduce:lookup_table <- $r0
	//DEBUG_VALUE: filter_ptr <- $r0
	//DEBUG_VALUE: i <- 1
	move r4, 1
.Ltmp160:
.LBB2_36:                               //   Parent Loop BB2_15 Depth=1
                                        //     Parent Loop BB2_34 Depth=2
                                        // =>    This Inner Loop Header: Depth=3
	//DEBUG_VALUE: fused_kernel:addresses <- [DW_OP_constu 32, DW_OP_minus, DW_OP_LLVM_fragment 160 32] [$r22+0]
	//DEBUG_VALUE: fused_kernel:addresses <- [DW_OP_constu 36, DW_OP_minus, DW_OP_LLVM_fragment 128 32] [$r22+0]
	//DEBUG_VALUE: fused_kernel:p <- [DW_OP_constu 48, DW_OP_minus, DW_OP_LLVM_fragment 64 32] [$r22+0]
	//DEBUG_VALUE: fused_kernel:addresses <- [DW_OP_constu 32, DW_OP_minus, DW_OP_LLVM_fragment 96 32] [$r22+0]
	//DEBUG_VALUE: fused_kernel:size_bytes <- [DW_OP_constu 24, DW_OP_minus, DW_OP_LLVM_fragment 128 32] [$r22+0]
	//DEBUG_VALUE: fused_kernel:size_bytes <- [DW_OP_constu 28, DW_OP_minus, DW_OP_LLVM_fragment 96 32] [$r22+0]
	//DEBUG_VALUE: fused_kernel:p <- [DW_OP_constu 40, DW_OP_minus, DW_OP_LLVM_fragment 96 32] [$r22+0]
	//DEBUG_VALUE: fused_kernel:pbuffer2 <- $r21
	//DEBUG_VALUE: fused_kernel:input <- $r21
	//DEBUG_VALUE: fused_kernel:reordered <- $r21
	//DEBUG_VALUE: fused_kernel:filter_reductions <- $r21
	//DEBUG_VALUE: fused_kernel:pbuffer1 <- $r20
	//DEBUG_VALUE: fused_kernel:encoded <- $r20
	//DEBUG_VALUE: fused_kernel:hashes <- [DW_OP_LLVM_fragment 32 32] $r20
	//DEBUG_VALUE: and_reduce:len <- $r19
	//DEBUG_VALUE: fused_kernel:hashes <- [DW_OP_LLVM_fragment 0 32] $r19
	//DEBUG_VALUE: fused_kernel:p <- [DW_OP_LLVM_fragment 192 32] $r19
	//DEBUG_VALUE: fused_kernel:p <- [DW_OP_LLVM_fragment 128 32] $r18
	//DEBUG_VALUE: sample_it <- $r17
	//DEBUG_VALUE: fused_kernel:p <- [DW_OP_LLVM_fragment 0 32] $r15
	//DEBUG_VALUE: fused_kernel:p <- [DW_OP_LLVM_fragment 32 32] $r14
	//DEBUG_VALUE: and_reduce:input <- $r2
	//DEBUG_VALUE: hash_ptr <- $r2
	//DEBUG_VALUE: filter_it <- $r1
	//DEBUG_VALUE: and_reduce:lookup_table <- $r0
	//DEBUG_VALUE: filter_ptr <- $r0
	//DEBUG_VALUE: and_reduce:result <- $r3
	//DEBUG_VALUE: i <- $r4
	.loc	1 94 41 is_stmt 1               // dpu/task.c:94:41
	lsl_add r5, r2, r4, 1
	lhu r5, r5, 0
.Ltmp161:
	//DEBUG_VALUE: get_bit:byte <- undef
	//DEBUG_VALUE: get_bit:data <- $r0
	//DEBUG_VALUE: get_bit:index <- [DW_OP_LLVM_convert 16 7, DW_OP_LLVM_convert 32 7, DW_OP_stack_value] $r5
	.loc	1 50 13                         // dpu/task.c:50:13
	lsr_add r6, r0, r5, 3
	lbu r6, r6, 0
	.loc	1 48 21                         // dpu/task.c:48:21
	and r5, r5, 7
.Ltmp162:
	//DEBUG_VALUE: get_bit:bit <- [DW_OP_LLVM_convert 16 7, DW_OP_LLVM_convert 32 7, DW_OP_constu 7, DW_OP_and, DW_OP_stack_value] undef
	.loc	1 50 24                         // dpu/task.c:50:24
	lsr r5, r6, r5
.Ltmp163:
	.loc	1 93 29                         // dpu/task.c:93:29
	add r4, r4, 1
.Ltmp164:
	//DEBUG_VALUE: i <- $r4
	.loc	1 94 16                         // dpu/task.c:94:16
	and r3, r3, r5
.Ltmp165:
	//DEBUG_VALUE: and_reduce:result <- $r3
	.loc	1 0 16 is_stmt 0                // dpu/task.c:0:16
	jneq r19, r4, .LBB2_36
	jump .LBB2_37
.Ltmp166:
.LBB2_39:
	//DEBUG_VALUE: fused_kernel:p <- [DW_OP_constu 48, DW_OP_minus, DW_OP_LLVM_fragment 64 32] [$r22+0]
	//DEBUG_VALUE: fused_kernel:addresses <- [DW_OP_constu 32, DW_OP_minus, DW_OP_LLVM_fragment 96 32] [$r22+0]
	//DEBUG_VALUE: fused_kernel:size_bytes <- [DW_OP_constu 24, DW_OP_minus, DW_OP_LLVM_fragment 128 32] [$r22+0]
	//DEBUG_VALUE: fused_kernel:size_bytes <- [DW_OP_constu 28, DW_OP_minus, DW_OP_LLVM_fragment 96 32] [$r22+0]
	//DEBUG_VALUE: fused_kernel:p <- [DW_OP_constu 40, DW_OP_minus, DW_OP_LLVM_fragment 96 32] [$r22+0]
	//DEBUG_VALUE: fused_kernel:pbuffer2 <- $r21
	//DEBUG_VALUE: fused_kernel:input <- $r21
	//DEBUG_VALUE: fused_kernel:reordered <- $r21
	//DEBUG_VALUE: fused_kernel:filter_reductions <- $r21
	//DEBUG_VALUE: fused_kernel:pbuffer1 <- $r20
	//DEBUG_VALUE: fused_kernel:encoded <- $r20
	//DEBUG_VALUE: fused_kernel:hashes <- [DW_OP_LLVM_fragment 32 32] $r20
	//DEBUG_VALUE: fused_kernel:hashes <- [DW_OP_LLVM_fragment 0 32] $r19
	//DEBUG_VALUE: fused_kernel:p <- [DW_OP_LLVM_fragment 192 32] $r19
	//DEBUG_VALUE: fused_kernel:p <- [DW_OP_LLVM_fragment 128 32] $r18
	//DEBUG_VALUE: fused_kernel:p <- [DW_OP_LLVM_fragment 0 32] $r15
	//DEBUG_VALUE: fused_kernel:p <- [DW_OP_LLVM_fragment 32 32] $r14
	move r0, 0
	.loc	1 329 5 is_stmt 1               // dpu/task.c:329:5
	ld d20, r22, -80
.Ltmp167:
	ld d18, r22, -72
.Ltmp168:
	ld d16, r22, -64
	ld d14, r22, -56
.Ltmp169:
	ld d22, r22, -8
.Ltmp170:
	jump r23
.Ltmp171:
.Lfunc_end2:
	.size	fused_kernel, .Lfunc_end2-fused_kernel
	.cfi_endproc
	.file	10 "/upmem-sdk-2023.4.0/bin/../share/upmem/include/syslib" "sysdef.h"
	.section	.stack_sizes,"o",@progbits,.text.fused_kernel
	.long	.Lfunc_begin2
	.byte	80
	.section	.text.fused_kernel,"ax",@progbits
                                        // -- End function
	.section	.text.main,"ax",@progbits
	.globl	main                            // -- Begin function main
	.type	main,@function
main:                                   // @main
.Lfunc_begin3:
	.loc	1 102 0                         // dpu/task.c:102:0
	.cfi_startproc
// %bb.0:
	.cfi_def_cfa_offset -8
	.cfi_offset 23, -8
	.cfi_offset 22, -4
	sd r22, 0, d22
	add r22, r22, 8
.Ltmp172:
	.loc	1 104 12 prologue_end           // dpu/task.c:104:12
	call r23, fused_kernel
.Ltmp173:
	.loc	1 0 12 is_stmt 0                // dpu/task.c:0:12
	move r0, 0
	.loc	1 104 5                         // dpu/task.c:104:5
	ld d22, r22, -8
	jump r23
.Ltmp174:
.Lfunc_end3:
	.size	main, .Lfunc_end3-main
	.cfi_endproc
	.section	.stack_sizes,"o",@progbits,.text.main
	.long	.Lfunc_begin3
	.byte	8
	.section	.text.main,"ax",@progbits
                                        // -- End function
	.type	kernels,@object                 // @kernels
	.section	.data.kernels,"aw",@progbits
	.globl	kernels
	.p2align	2
kernels:
	.long	fused_kernel
	.size	kernels, 4

	.type	DPU_INPUT_ARGUMENTS,@object     // @DPU_INPUT_ARGUMENTS
	.section	.dpu_host,"aw",@progbits
	.globl	DPU_INPUT_ARGUMENTS
	.p2align	3
DPU_INPUT_ARGUMENTS:
	.zero	60
	.size	DPU_INPUT_ARGUMENTS, 60

	.type	thresholds,@object              // @thresholds
	.section	.bss.thresholds,"aw",@nobits
	.globl	thresholds
	.p2align	2
thresholds:
	.long	0
	.size	thresholds, 4

	.type	order,@object                   // @order
	.section	.bss.order,"aw",@nobits
	.globl	order
	.p2align	2
order:
	.long	0
	.size	order, 4

	.type	hash_params,@object             // @hash_params
	.section	.bss.hash_params,"aw",@nobits
	.globl	hash_params
	.p2align	2
hash_params:
	.zero	8
	.size	hash_params, 8

	.type	filters,@object                 // @filters
	.section	.bss.filters,"aw",@nobits
	.globl	filters
	.p2align	2
filters:
	.zero	8
	.size	filters, 8

	.type	DPU_RESULTS,@object             // @DPU_RESULTS
	.section	.dpu_host,"aw",@progbits
	.globl	DPU_RESULTS
	.p2align	3
DPU_RESULTS:
	.zero	88
	.size	DPU_RESULTS, 88

	.type	__atomic_bit_barrier_reset_barrier,@object // @__atomic_bit_barrier_reset_barrier
	.section	.atomic,"aw",@progbits
	.globl	__atomic_bit_barrier_reset_barrier
__atomic_bit_barrier_reset_barrier:
	.byte	0                               // 0x0
	.size	__atomic_bit_barrier_reset_barrier, 1

	.type	__atomic_bit_barrier_initialization_barrier,@object // @__atomic_bit_barrier_initialization_barrier
	.globl	__atomic_bit_barrier_initialization_barrier
__atomic_bit_barrier_initialization_barrier:
	.byte	0                               // 0x0
	.size	__atomic_bit_barrier_initialization_barrier, 1

	.file	11 "/upmem-sdk-2023.4.0/bin/../share/upmem/include/syslib" "perfcounter.h"